(dp1
Vyellow
p2
I0
sVsleek
p3
I1298
sVfour
p4
I1
sVasian
p5
I1292
sVupsid
p6
I671
sVdynamit
p7
I10
sVhate
p8
I2074
sVnquett
p9
I1293
sVdisgust
p10
I2171
sVwhose
p11
I1294
sVshoestr
p12
I672
sVsorri
p13
I1295
sVcrush
p14
I2460
sVpancetta
p15
I1296
sVconcret
p16
I2075
sVpride
p17
I2391
sVworth
p18
I673
sVlure
p19
I2076
sVeveri
p20
I2077
sVdeli
p21
I2
sVjack
p22
I2078
sVaffect
p23
I34
sVpoorli
p24
I2073
sVslather
p25
I674
sVvast
p26
I1299
sVsoba
p27
I1835
sVsichuan
p28
I1291
sVschool
p29
I2079
sVwhisk
p30
I675
sVbeam
p31
I1997
sVwooden
p32
I3
sVshowcas
p33
I4
sVformica
p34
I2080
sVfrozen
p35
I2563
sVbarbecu
p36
I2081
sVfritter
p37
I5
sVenjoy
p38
I2082
sVzarela
p39
I2564
sValmond
p40
I2083
sVbacon
p41
I7
sVrequest
p42
I1988
sVchef
p43
I677
sVsecond
p44
I8
sVentr
p45
I1301
sVsooth
p46
I9
sVn
I2196
sVeven
p47
I1302
sVhide
p48
I1385
sVneg
p49
I1303
sVned
p50
I1304
sVasid
p51
I1305
sVasia
p52
I1306
sVfrank
p53
I1969
sVnew
p54
I1307
sVever
p55
I1308
sVtold
p56
I679
sVherb
p57
I11
sVmen
p58
I98
sVseaso
p59
I680
sVmet
p60
I1310
sVchina
p61
I12
sVjamon
p62
I1311
sVpleasur
p63
I681
sVmozzarella
p64
I2091
sVconsomm
p65
I1312
sVdaughter
p66
I682
sVanymor
p67
I2093
sVeveryon
p68
I1839
sVdri
p69
I1313
sVcredit
p70
I117
sVsmoke
p71
I683
sVsmoki
p72
I684
sVtremend
p73
I2094
sVgolden
p74
I13
sVbrule
p75
I2095
sVstraw
p76
I2096
sVhomemad
p77
I1314
sVmeati
p78
I2097
sVbrought
p79
I14
sVcarb
p80
I292
sVattitud
p81
I685
sVtotal
p82
I686
sVhighli
p83
I1468
sVoverhear
p84
I1316
sVspoke
p85
I15
sVwould
p86
I2099
sVoverhead
p87
I154
sVcalm
p88
I1318
sVrecommend
p89
I1319
sVstrike
p90
I17
sVtype
p91
I1320
sVtell
p92
I1321
sVmush
p93
I2100
sVrelax
p94
I18
sVgiovanni
p95
I687
sVnotic
p96
I19
sVwarn
p97
I1322
sVglass
p98
I20
sVwarm
p99
I1323
sVadult
p100
I1324
sVboomer
p101
I2102
sVsparkl
p102
I1993
sVhole
p103
I21
sVhold
p104
I171
sVmust
p105
I2103
sVshoot
p106
I2104
sVword
p107
I688
sVroom
p108
I1325
sVelegantli
p109
I689
sVwork
p110
I690
sVmi
p111
I2106
sVwors
p112
I691
sVera
p113
I692
sVmr
p114
I2107
sVelbow
p115
I693
sViciou
p116
I1435
sVroot
p117
I1326
sVclubbi
p118
I2108
sVvodka
p119
I1327
sVomelett
p120
I22
sVbell
p121
I2731
sVgive
p122
I1328
sVfoodi
p123
I1329
sVleafi
p124
I2154
sVinfus
p125
I23
sVexquisit
p126
I696
sVhoney
p127
I1330
sVliter
p128
I2442
sVwant
p129
I24
sVknickknack
p130
I2109
sVdavid
p131
I573
sVattract
p132
I2110
sVgigant
p133
I699
sVend
p134
I2111
sVturn
p135
I2317
sVtravel
p136
I25
sVconfit
p137
I1331
sVhot
p138
I26
sVent
p139
I2112
sVconfin
p140
I212
sVhop
p141
I27
sVanswer
p142
I1332
sVdisappoint
p143
I701
sVbeach
p144
I702
sVpolit
p145
I216
sVrecogn
p146
I704
sVmess
p147
I2113
sVchines
p148
I705
sVbadli
p149
I2114
sVwrong
p150
I29
sVbeauti
p151
I30
sVbalthazar
p152
I1334
sVsalsa
p153
I2115
sVarch
p154
I1604
sVaverag
p155
I707
sVmemori
p156
I2288
sVdomin
p157
I708
sVthird
p158
I1336
sVgreet
p159
I709
sVimposs
p160
I2319
sVreceiv
p161
I1442
sVgreen
p162
I710
sVsouth
p163
I1970
sVenter
p164
I2118
sVworst
p165
I2448
sVharlem
p166
I2119
sVorder
p167
I712
sVwine
p168
I32
sVorigin
p169
I2320
sVfettuccin
p170
I33
sVdeco
p171
I1337
sVcouscou
p172
I713
sVdeck
p173
I1338
sVmuffin
p174
I714
sVorang
p175
I2121
sValway
p176
I2296
sVoven
p177
I2122
sVappar
p178
I1297
sVjapan
p179
I715
sVvari
p180
I35
sVwrought
p181
I36
sVyellowfin
p182
I37
sVfit
p183
I38
sVsavori
p184
I716
sVfix
p185
I40
sVavocado
p186
I717
sVcrew
p187
I1339
sVbetter
p188
I1340
sVoffic
p189
I718
sVcomplex
p190
I2202
sVfig
p191
I41
sVcrea
p192
I1341
sVhidden
p193
I42
sVanim
p194
I1342
sVtourist
p195
I2124
sVbeverag
p196
I2322
sVbreak
p197
I719
sVcoloss
p198
I720
sVbang
p199
I721
sVpromis
p200
I1343
sVsilver
p201
I44
sVbread
p202
I722
sVdingi
p203
I723
sVchoic
p204
I2125
sVmeat
p205
I1344
sVrosemari
p206
I1345
sVl
I724
sVdumpl
p207
I45
sVaccommod
p208
I46
sVpanini
p209
I1346
sVroast
p210
I1347
sVwent
p211
I1348
sVcrunchi
p212
I2126
sVside
p213
I297
sVbone
p214
I1350
sVbond
p215
I301
sVdous
p216
I1352
sVenorm
p217
I1353
sVowner
p218
I581
sVturnip
p219
I770
sVforgot
p220
I1354
sVmahogani
p221
I2128
sVsaturday
p222
I2129
sVwhip
p223
I47
sVvelvet
p224
I1355
sVpalat
p225
I725
sVgoe
p226
I1709
sVgod
p227
I2131
sVrd
p228
I49
sVpalac
p229
I726
sVdaniel
p230
I727
sVrare
p231
I2750
sVnite
p232
I2134
sVgot
p233
I2135
sVfava
p234
I1357
sVrail
p235
I2136
sVsituat
p236
I941
sVfree
p237
I2137
sVstandard
p238
I728
sVlousi
p239
I729
sVate
p240
I50
sVfieri
p241
I1603
sVraisin
p242
I730
sVtakeout
p243
I52
sVangu
p244
I1755
sVzape
p245
I1359
sVsoda
p246
I2139
sVsubtl
p247
I731
sVconfus
p248
I53
sVkin
p249
I1446
sVpristin
p250
I2141
sVrang
p251
I2142
sVshopper
p252
I54
sVwast
p253
I55
sVwash
p254
I56
sVunlik
p255
I1362
sValreadi
p256
I2143
sVthick
p257
I732
sVmassiv
p258
I1363
sVfantast
p259
I2144
sVlight
p260
I2643
sVhood
p261
I1364
sVspinach
p262
I1365
sVtangi
p263
I57
sVairi
p264
I733
sVtop
p265
I2145
sVsometim
p266
I1367
sVmaster
p267
I58
sVtom
p268
I2147
sVjohn
p269
I734
sVbitter
p270
I59
sVlisten
p271
I60
sVbutter
p272
I1450
sVhangout
p273
I2149
sVmani
p274
I1672
sVtook
p275
I2150
sVdirect
p276
I2084
sVobnoxi
p277
I1369
sVhearti
p278
I2206
sVwestern
p279
I2151
sVsomewhat
p280
I1370
sVearthi
p281
I2331
sVsmokey
p282
I1451
sVprovid
p283
I735
sVeleg
p284
I460
sVtree
p285
I62
sVcrave
p286
I1300
sVmatter
p287
I1371
sVstreet
p288
I2085
sViron
p289
I736
sVminut
p290
I737
sVmini
p291
I1372
sVfashion
p292
I2152
sVclose
p293
I1979
sVran
p294
I2153
sVmodern
p295
I1373
sVmind
p296
I1374
sVmine
p297
I1375
sVasparagu
p298
I450
sVtruffl
p299
I738
sVraw
p300
I2155
sVseed
p301
I1377
sVmanner
p302
I739
sVseen
p303
I1378
sVseem
p304
I1379
sVmint
p305
I1380
sVdozen
p306
I63
sVtho
p307
I2241
sVluxuri
p308
I740
sVterrif
p309
I741
sVladen
p310
I742
sVthat
p311
I896
sVsnow
p312
I2157
sVterrin
p313
I743
sVcontact
p314
I2671
sVpicki
p315
I66
sVblue
p316
I2086
sVplenti
p317
I2158
sVthough
p318
I2159
sVmarin
p319
I1382
sVmario
p320
I1383
sVgravi
p321
I1874
sVregular
p322
I1384
sVmouth
p323
I67
sVaddict
p324
I68
sVpeppercorn
p325
I2160
sVwatercress
p326
I1386
sVeveryth
p327
I2209
sVglow
p328
I2162
sVtradit
p329
I1387
sVexcus
p330
I744
sVmetal
p331
I1881
sVdog
p332
I1388
sVhospit
p333
I69
sVsoupi
p334
I2164
sVplace
p335
I2318
sVlaid
p336
I2133
sVmushi
p337
I1389
sVscream
p338
I70
sVcame
p339
I71
sVbeaten
p340
I2088
sVvisitor
p341
I1392
sVtequila
p342
I72
sVqueen
p343
I2166
sVsage
p344
I2167
sVprix
p345
I73
sVfennel
p346
I74
sVsubtli
p347
I745
sVupholst
p348
I746
sVfraich
p349
I1907
sVmellow
p350
I2471
sVtoast
p351
I747
sVdespit
p352
I1394
sVnobodi
p353
I1975
sVlayout
p354
I76
sVshellfish
p355
I2170
sVquaint
p356
I532
sVmenu
p357
I77
sVexplain
p358
I1395
sVrestaur
p359
I78
sVsugar
p360
I1396
sVtheme
p361
I79
sVbusi
p362
I80
sVrich
p363
I81
sVtropic
p364
I2172
sVrice
p365
I536
sVplate
p366
I83
sVcappuccino
p367
I748
sVdj
p368
I749
sVdi
p369
I750
sVcheddar
p370
I84
sVnasti
p371
I751
sVde
p372
I752
sVstop
p373
I1398
sVceil
p374
I85
sVspirit
p375
I2377
sVrelish
p376
I556
sVnamesak
p377
I87
sVhall
p378
I2733
sVbat
p379
I1400
sVbar
p380
I1401
sVdisco
p381
I565
sVsauc
p382
I88
sVbag
p383
I1403
sVbad
p384
I1404
sVcontrast
p385
I2176
sVsteak
p386
I753
sVsteam
p387
I754
sVrespond
p388
I577
sVfragrant
p389
I2177
sVblew
p390
I89
sVfair
p391
I90
sVliquor
p392
I1973
sVkielbasa
p393
I2584
sVpinot
p394
I91
sVresult
p395
I92
sVrespons
p396
I93
sVfail
p397
I94
sVfluffi
p398
I1405
sVbest
p399
I95
sVawar
p400
I755
sVsaid
p401
I1406
sVonto
p402
I2140
sVaway
p403
I756
sVfigur
p404
I96
sVoutstand
p405
I2179
sVfinger
p406
I2180
sVyogurt
p407
I97
sVapproach
p408
I2181
sVgruyer
p409
I1407
sVcajun
p410
I2182
sVnever
p411
I1309
sVancho
p412
I1408
sVwo
p413
I757
sVboss
p414
I2183
sVextens
p415
I99
sVlazi
p416
I612
sVwear
p417
I2008
sVcousin
p418
I1409
sVkitchen
p419
I758
sVacoust
p420
I2184
sVmildli
p421
I2185
sVcow
p422
I759
sVhowev
p423
I760
sVmariachi
p424
I761
sVbrac
p425
I762
sVcod
p426
I2022
sVlinguin
p427
I763
sVpita
p428
I100
sVcountri
p429
I101
sVfreshest
p430
I2025
sVcon
p431
I764
sVsuggest
p432
I2201
sVassur
p433
I102
sVtough
p434
I765
sVcoconut
p435
I1609
sVheight
p436
I1411
sVtrust
p437
I2186
sVassum
p438
I103
sVether
p439
I1412
sVspeak
p440
I766
sVreciev
p441
I1413
sVbathroom
p442
I2187
sVdelect
p443
I2090
sVbeef
p444
I2188
sVunion
p445
I104
sVfri
p446
I105
sVthree
p447
I1415
sVting
p448
I1416
sVbeer
p449
I2189
sVmuch
p450
I106
sVbeet
p451
I2191
sVinterest
p452
I1417
sVsaute
p453
I900
sVbasil
p454
I1419
sVwarmth
p455
I2062
sVtini
p456
I1420
sVquickli
p457
I2063
sVlife
p458
I108
sVrecomend
p459
I109
sVmushroom
p460
I1421
sVeastern
p461
I110
sVworker
p462
I111
sVmeatbal
p463
I2668
sVconnoisseur
p464
I2092
sVchile
p465
I112
sVchild
p466
I113
sVcatch
p467
I2195
sVchili
p468
I114
sVspin
p469
I115
sVchill
p470
I116
sVugli
p471
I1422
sVsave
p472
I1456
sVtank
p473
I1423
sVtang
p474
I1424
sVhat
p475
I133
sVservic
p476
I1425
sVpungent
p477
I768
sVair
p478
I769
sVnear
p479
I1426
sVoccas
p480
I1427
sVgave
p481
I2215
sVseven
p482
I1428
sVgarag
p483
I2197
sVmexico
p484
I1429
sVmouss
p485
I1430
sVsushi
p486
I1431
sVshame
p487
I1433
sVcant
p488
I1434
sVim
p489
I694
sVexterior
p490
I2200
sVin
p491
I1436
sVcarmin
p492
I1437
sVid
p493
I1438
sVdisappear
p494
I700
sVbelli
p495
I1440
sVmaki
p496
I1441
sVportobello
p497
I118
sVslab
p498
I904
sVmake
p499
I1443
sVdrawback
p500
I2123
sVsplit
p501
I119
sVjerri
p502
I772
sVeuropean
p503
I120
sVpapaya
p504
I2204
sVsconc
p505
I2670
sVsocial
p506
I2205
sVhang
p507
I773
sVrain
p508
I774
sVhand
p509
I775
sVdelight
p510
I1444
sVfairli
p511
I121
sVrais
p512
I2138
sVgarlic
p513
I1445
sVrefil
p514
I122
sVrefin
p515
I123
sVtuna
p516
I124
sVovers
p517
I1447
sVoverr
p518
I1448
sVtune
p519
I125
sVkid
p520
I1449
sVnibbl
p521
I126
sVnarrow
p522
I1735
sVkept
p523
I776
sVbewar
p524
I127
sVdent
p525
I2677
sVthu
p526
I777
sVmin
p527
I1981
sVdrip
p528
I778
sVocean
p529
I2207
sVudon
p530
I2156
sVclient
p531
I779
sVmother
p532
I2208
sVjean
p533
I2161
sVchandeli
p534
I2210
sVleft
p535
I1452
sVphoto
p536
I780
sVyet
p537
I1453
sVlanguag
p538
I1454
sVprevious
p539
I128
sVham
p540
I129
sVeasi
p541
I130
sVroyal
p542
I1455
sVshout
p543
I781
sVspread
p544
I2190
sVboard
p545
I2192
sVenchilada
p546
I131
sVcherri
p547
I2194
sVeast
p548
I132
sVplasma
p549
I782
sVsquab
p550
I1614
sVopt
p551
I1457
sVbook
p552
I2765
sVmayb
p553
I783
sVpreserv
p554
I134
sVmayo
p555
I784
sVfusion
p556
I785
sVbackground
p557
I1458
sVelabor
p558
I1459
sVchipotl
p559
I2699
sVburnt
p560
I2216
sVapart
p561
I2217
sVshoulder
p562
I1460
sVavenu
p563
I1315
sVgift
p564
I2218
sVspecif
p565
I135
sVcooler
p566
I787
sVdivers
p567
I2673
sVremind
p568
I137
sVconfid
p569
I1333
sVnight
p570
I788
sVhung
p571
I2219
sVsoar
p572
I593
sVright
p573
I138
sVold
p574
I139
sVcrowd
p575
I140
sVcuisin
p576
I2220
sVsomehow
p577
I1462
sVdead
p578
I1463
sVbore
p579
I789
sVproudli
p580
I2476
sVforgotten
p581
I1083
sVsprawl
p582
I1464
sVbottom
p583
I141
sVice
p584
I2221
sVsubdu
p585
I1466
sVskylight
p586
I2222
sVcondit
p587
I142
sVovercook
p588
I1467
sVpeek
p589
I790
sVplu
p590
I791
sVtartar
p591
I1469
sVbold
p592
I1470
sVcorn
p593
I2224
sVburn
p594
I1471
sVcork
p595
I2225
sVcolleg
p596
I143
sVpaid
p597
I1619
sVpost
p598
I792
sVsuper
p599
I1472
sVdescrib
p600
I2098
sVcoast
p601
I1399
sVdiner
p602
I793
sVslightli
p603
I144
sVsurround
p604
I2227
sVunfortun
p605
I2228
sVfestiv
p606
I2229
sVdinner
p607
I2230
sVafternoon
p608
I1473
sVproduc
p609
I2232
sVflatbread
p610
I145
sVsatay
p611
I1992
sVfloat
p612
I794
sVprofession
p613
I795
sVson
p614
I146
sVcreativ
p615
I147
sVloin
p616
I796
sVsor
p617
I148
sVwrap
p618
I877
sVcafeteria
p619
I2233
sVmicrowav
p620
I1474
sVwan
p621
I797
sVaccordingli
p622
I798
sVdeal
p623
I1461
sVquirki
p624
I799
sVsupport
p625
I150
sVfrill
p626
I800
sVtransform
p627
I2234
sVopul
p628
I2235
sVfight
p629
I801
sVavail
p630
I152
sVstuck
p631
I2236
sVway
p632
I802
sVacknowledg
p633
I153
sVcall
p634
I1317
sVconstantli
p635
I155
sVfork
p636
I1476
sVhead
p637
I2237
sVmedium
p638
I2238
sVform
p639
I1477
sVoffer
p640
I156
sVforc
p641
I1478
sVmarinara
p642
I1479
sVheat
p643
I2239
sVhear
p644
I2240
sVheap
p645
I2351
sVsundri
p646
I803
sVtrue
p647
I804
sVfort
p648
I1480
sVflavour
p649
I2242
sVutensil
p650
I2657
sVcrystal
p651
I805
sVnicest
p652
I157
sVescargot
p653
I1106
sVtemper
p654
I1482
sVadorn
p655
I2243
sVtrim
p656
I2244
sVtrio
p657
I2245
sVlater
p658
I159
sValongsid
p659
I806
sVclassic
p660
I1484
sVperuvian
p661
I2246
sVtoss
p662
I1485
sVbrightli
p663
I2247
sVcandlelit
p664
I2248
sVexist
p665
I160
sVmagnifico
p666
I2249
sVdesir
p667
I1741
sVship
p668
I1487
sVquantiti
p669
I2346
sVmole
p670
I807
sVsticki
p671
I1488
sVassembl
p672
I2251
sVpipe
p673
I2678
sVsurpris
p674
I2580
sVfloor
p675
I161
sVna
p676
I2393
sVexcel
p677
I1489
sVrotisseri
p678
I808
sVny
p679
I2253
sVdimli
p680
I809
sVvenison
p681
I1490
sVtest
p682
I810
sVtie
p683
I2255
sVappetit
p684
I2256
sVsmell
p685
I162
sVroll
p686
I955
sVmatur
p687
I1491
sVintend
p688
I164
sVfelt
p689
I1492
sVdiet
p690
I1493
sVfell
p691
I1494
sVwaitor
p692
I2101
sVconsid
p693
I2257
sVweekend
p694
I1495
sVfemal
p695
I970
sVlonger
p696
I2258
sVpotato
p697
I1496
sVflag
p698
I2468
sVjacket
p699
I1497
sVbanquett
p700
I811
sVignor
p701
I1498
sVinexpens
p702
I2680
sVtime
p703
I165
sVpush
p704
I166
sVserious
p705
I2259
sVdaili
p706
I1499
sVslope
p707
I2349
sVchain
p708
I167
sVskip
p709
I1500
sVconsum
p710
I812
sVroe
p711
I2261
sVinvent
p712
I1501
sVknown
p713
I2470
sVmild
p714
I1502
sVskate
p715
I168
sVskin
p716
I1503
sVchair
p717
I169
sVmilk
p718
I1505
sVrow
p719
I2263
sVdecid
p720
I170
sVmiddl
p721
I813
sVgrape
p722
I814
sVflash
p723
I815
sVfather
p724
I1507
sVbusboy
p725
I816
sVveg
p726
I173
sVcertainli
p727
I817
sVyummi
p728
I1508
sVmelon
p729
I2264
sVsouthwest
p730
I818
sVbrown
p731
I819
sVsourc
p732
I2265
sVstring
p733
I1510
sVjerk
p734
I174
sVcheap
p735
I2352
sVvegan
p736
I820
sVplantain
p737
I2223
sVcook
p738
I2268
sVjoin
p739
I2105
sVblast
p740
I821
sVseemingli
p741
I822
sVmargarita
p742
I823
sVdim
p743
I1511
sVdin
p744
I1512
sVmahi
p745
I175
sVlevel
p746
I2270
sVtear
p747
I176
sVdie
p748
I1513
sVleftov
p749
I177
sVdig
p750
I1514
sVbrother
p751
I2497
sVp
I824
sVsubway
p752
I178
sVteam
p753
I179
sVcooki
p754
I180
sVskewer
p755
I181
sVguy
p756
I825
sVdip
p757
I1516
sVround
p758
I1517
sVshave
p759
I1518
sVupper
p760
I826
sVpork
p761
I2272
sVregret
p762
I827
sVsign
p763
I182
sVeverytim
p764
I828
sVcost
p765
I829
sVpatient
p766
I1870
sVbake
p767
I2273
sVport
p768
I2274
sVgnocchi
p769
I1519
sVappear
p770
I830
sVremain
p771
I1748
sVmelt
p772
I183
sVsuspect
p773
I1521
sVappeal
p774
I831
sVunpretenti
p775
I184
sVbo
p776
I476
sVbalconi
p777
I2713
sVgener
p778
I832
sVv
I2474
sVfrench
p779
I1522
sVsatisfi
p780
I833
sVfluke
p781
I2277
sVslow
p782
I246
sVaddress
p783
I185
sVlocat
p784
I2683
sValong
p785
I186
sVwait
p786
I1523
sVbox
p787
I1524
sVbuck
p788
I834
sVinsan
p789
I1526
sVboast
p790
I2280
sVinvit
p791
I1527
sVbrilliant
p792
I187
sVcinnamon
p793
I2281
sVhealthi
p794
I2282
sVvinaigrett
p795
I835
sVweird
p796
I2283
sVsqueez
p797
I2581
sVorient
p798
I1778
sVceram
p799
I1529
sVlove
p800
I188
sVkebab
p801
I1530
sVextra
p802
I836
sVradish
p803
I189
sVprefer
p804
I190
sVupstair
p805
I2284
sVleav
p806
I2744
sVfake
p807
I191
sVsalti
p808
I2285
sVsmallish
p809
I2286
sVmarket
p810
I837
sVbloodi
p811
I192
sVcreami
p812
I1532
sVconcoct
p813
I2287
sVprove
p814
I838
sVsake
p815
I1533
sVvisit
p816
I1534
sVlive
p817
I839
sVwood
p818
I2354
sVloung
p819
I2289
sVangri
p820
I193
sVtightli
p821
I194
sVafford
p822
I195
sVpeopl
p823
I196
sVappet
p824
I1535
sVenhanc
p825
I197
sVdowntown
p826
I1536
sVvisual
p827
I198
sVindic
p828
I1537
sVventur
p829
I2291
sVeffort
p830
I1538
sVooz
p831
I1539
sVprepar
p832
I841
sVjudg
p833
I2292
sVuniqu
p834
I1143
sVfli
p835
I1541
sVwallet
p836
I1146
sVsour
p837
I1543
sVwhatev
p838
I199
sVcitru
p839
I1544
sVplump
p840
I1632
sVcaf
p841
I843
sVheart
p842
I844
sVcomplimentari
p843
I2583
sVfavourit
p844
I1546
sVfabul
p845
I1547
sVstream
p846
I2293
sVcurri
p847
I2226
sVchip
p848
I845
sVheard
p849
I846
sVcrazi
p850
I1548
sVtabl
p851
I2199
sVchic
p852
I847
sVnearli
p853
I1633
sVpink
p854
I1168
sVmultipl
p855
I848
sVsavor
p856
I200
sVcuba
p857
I2688
sVfreezer
p858
I849
sVnyu
p859
I1549
sVwrite
p860
I850
sVtill
p861
I1550
sVsunday
p862
I1551
sVflank
p863
I851
sVanyon
p864
I2297
sVpure
p865
I1552
sVtile
p866
I1553
sVnyc
p867
I1554
sVpint
p868
I1555
sVproduct
p869
I852
sVmar
p870
I1556
sVcocktail
p871
I2298
sVmay
p872
I1557
sVmax
p873
I1558
sVdive
p874
I853
sVfed
p875
I2622
sVsouthern
p876
I854
sVmac
p877
I1559
sVbirthday
p878
I2299
sVmad
p879
I1560
sVbrioch
p880
I201
sVdate
p881
I202
sVsuck
p882
I203
sVgrow
p883
I1561
sVman
p884
I1562
sVstress
p885
I204
sVcrepe
p886
I855
sVawkward
p887
I1754
sVliquid
p888
I2301
sVbrussel
p889
I856
sVsp
p890
I205
sVfavorit
p891
I857
sVst
p892
I206
sVinform
p893
I2303
sVswitch
p894
I1563
sVmango
p895
I207
sVcombin
p896
I2304
sVafrican
p897
I1564
sVoffend
p898
I859
sVtall
p899
I1566
sVtalk
p900
I1567
sVcute
p901
I1568
sVlighter
p902
I2356
sVbrais
p903
I860
sVshake
p904
I1569
sVcold
p905
I861
sVstill
p906
I862
sVsprinkl
p907
I863
sVgroup
p908
I1570
sVthumb
p909
I209
sVpolici
p910
I1572
sVtoro
p911
I210
sVinstantli
p912
I211
sVwindow
p913
I864
sVgem
p914
I1636
sVparmesan
p915
I2437
sVmediocr
p916
I865
sVmain
p917
I1573
sVnon
p918
I866
sVbeig
p919
I1248
sVkiller
p920
I1574
sViniti
p921
I1253
sVgourmet
p922
I1038
sVlunch
p923
I1576
sVaesthet
p924
I868
sVhalf
p925
I869
sVmolass
p926
I2306
sVbath
p927
I2307
sVdiscuss
p928
I870
sVwont
p929
I2735
sVmoist
p930
I2533
sVterm
p931
I2308
sVname
p932
I2309
sVdrop
p933
I871
sVoliv
p934
I1577
sVsepar
p935
I215
sVrock
p936
I1578
sVpizza
p937
I703
sVel
p938
I873
sVen
p939
I874
sVreplac
p940
I875
sVindividu
p941
I2310
sVmacaroni
p942
I2386
sVyeah
p943
I876
sVcumin
p944
I2358
sVsoy
p945
I149
sVex
p946
I878
sVyear
p947
I879
sVet
p948
I880
sVhappen
p949
I881
sVer
p950
I882
sVsatisfyingli
p951
I2312
sVquett
p952
I1581
sVjackson
p953
I1582
sVrude
p954
I1009
sVspace
p955
I883
sVstool
p956
I2165
sVpizzeria
p957
I1584
sVmonkfish
p958
I884
sVcorrect
p959
I1585
sVunfriendli
p960
I2313
sVmonster
p961
I1586
sVunderwhelm
p962
I218
sVcupcak
p963
I219
sVcarv
p964
I885
sVargu
p965
I886
sVcart
p966
I887
sVaioli
p967
I1587
sVvinyl
p968
I1588
sVromant
p969
I1589
sVmarina
p970
I888
sVhefti
p971
I1590
sVoverpr
p972
I2689
sVcard
p973
I889
sVcare
p974
I890
sVfunki
p975
I1591
sVwaiter
p976
I1592
sVrefus
p977
I2316
sVhonest
p978
I891
sVthing
p979
I1593
sVyum
p980
I28
sVpepperoni
p981
I1594
sVzesti
p982
I2087
sVthink
p983
I1595
sVfrequent
p984
I1596
sVfirst
p985
I1597
sVoper
p986
I220
sVwineturtl
p987
I2321
sVcarri
p988
I1598
sVquestion
p989
I1599
sVcheesi
p990
I1600
sVone
p991
I221
sVmignon
p992
I222
sVfast
p993
I1601
sVspanish
p994
I223
sVoppos
p995
I1602
sVring
p996
I892
sVhappi
p997
I151
sVopen
p998
I224
sVsize
p999
I893
sVgiven
p1000
I2325
sVteenag
p1001
I51
sVdelicaci
p1002
I2116
sVbite
p1003
I225
sVfierc
p1004
I1605
sVplastic
p1005
I2327
sVciti
p1006
I226
sVassort
p1007
I2328
sVmasala
p1008
I2329
sVwhite
p1009
I2330
sVconveni
p1010
I227
sVfriend
p1011
I895
sVinclud
p1012
I1876
sVespeci
p1013
I65
sVseason
p1014
I2332
sVcopi
p1015
I2333
sVenclos
p1016
I2334
sVmostli
p1017
I897
sVamazingli
p1018
I1475
sVattempt
p1019
I1335
sVthai
p1020
I898
sVboyfriend
p1021
I228
sVserv
p1022
I2336
sVwide
p1023
I2337
sVmidtown
p1024
I1607
sVr
I2338
sVbalanc
p1025
I2339
sVcoat
p1026
I1760
sVposit
p1027
I2340
sVcrackl
p1028
I1608
sVpre
p1029
I2341
sVdelic
p1030
I899
sVsan
p1031
I229
sVnicer
p1032
I1414
sVslaw
p1033
I107
sVanywher
p1034
I901
sVsad
p1035
I230
sVbalsam
p1036
I231
sVsay
p1037
I232
sVdeliv
p1038
I902
sVbreakfast
p1039
I903
sVborough
p1040
I233
sVsaw
p1041
I234
sVsat
p1042
I235
sVsquar
p1043
I1612
sVgreek
p1044
I1613
sVnote
p1045
I236
sVideal
p1046
I2342
sVtake
p1047
I237
sVadvis
p1048
I1615
sVinterior
p1049
I1616
sVenviron
p1050
I2117
sVwonder
p1051
I1617
sVnoth
p1052
I238
sVbegin
p1053
I905
sVsure
p1054
I2343
sVimportantli
p1055
I906
sVexpertli
p1056
I907
sVnormal
p1057
I1465
sVtrack
p1058
I1618
sVprice
p1059
I908
sVknew
p1060
I239
sVentranc
p1061
I2695
sVbuffet
p1062
I240
sVchampagn
p1063
I1620
sVpair
p1064
I1621
sVcuban
p1065
I1622
sVdream
p1066
I1011
sVseafood
p1067
I2345
sVnapkin
p1068
I1217
sVsale
p1069
I1486
sVwing
p1070
I31
sVprofus
p1071
I910
sVsoho
p1072
I2347
sVsalt
p1073
I242
sVhungri
p1074
I2348
sVshop
p1075
I1623
sVperch
p1076
I2350
sVmadison
p1077
I243
sVshot
p1078
I1624
sVshow
p1079
I1625
sVgerman
p1080
I911
sVrendit
p1081
I912
sVbright
p1082
I244
sVshoe
p1083
I1626
sVcorner
p1084
I1627
sVsuperb
p1085
I2696
sVcalamari
p1086
I245
sVground
p1087
I913
sVenthusiast
p1088
I1628
sVsnack
p1089
I914
sVsprout
p1090
I2120
sVstair
p1091
I915
sVactiv
p1092
I247
sVjolt
p1093
I916
sVoutpost
p1094
I1050
sVcucumb
p1095
I917
sVblack
p1096
I1630
sVcrumbl
p1097
I1631
sVstain
p1098
I918
sVpumpkin
p1099
I919
sVpastrami
p1100
I920
sVvariou
p1101
I1634
sVget
p1102
I1635
sVjazz
p1103
I2355
sVstate
p1104
I2353
sVnobu
p1105
I208
sVrequir
p1106
I248
sVtruli
p1107
I921
sVprime
p1108
I249
sVreveal
p1109
I2357
sVartist
p1110
I250
sVleather
p1111
I922
sVhostil
p1112
I923
sVdramat
p1113
I217
sVstupid
p1114
I1637
sVtortilla
p1115
I251
sVhusband
p1116
I924
sVburst
p1117
I925
sVsear
p1118
I1638
sVseat
p1119
I1639
sVbuddha
p1120
I2410
sVcauliflow
p1121
I1640
sVsport
p1122
I926
sVconcern
p1123
I927
sVgroovi
p1124
I252
sVchewi
p1125
I1641
sVinnov
p1126
I1642
sVreview
p1127
I2360
sVglaze
p1128
I928
sVenough
p1129
I1629
sVcomp
p1130
I2361
sVimport
p1131
I929
sVacross
p1132
I1644
sVspars
p1133
I253
sVparent
p1134
I1645
sVju
p1135
I1646
sVscreen
p1136
I254
sVsupermarket
p1137
I255
sVsmoothi
p1138
I256
sVnd
p1139
I2395
sVspare
p1140
I257
sVspark
p1141
I258
sVcome
p1142
I2362
sVloudli
p1143
I259
sVberri
p1144
I2363
sVtuck
p1145
I1647
sVsimilar
p1146
I1648
sVregion
p1147
I2364
sVquiet
p1148
I2365
sVtout
p1149
I1649
sVitem
p1150
I1515
sVchorizo
p1151
I260
sVamong
p1152
I1651
sVflavorless
p1153
I1652
sVcolor
p1154
I2366
sVpot
p1155
I2367
sVinspir
p1156
I2368
sVpop
p1157
I285
sVfeatur
p1158
I1483
sVboar
p1159
I261
sVturkey
p1160
I2370
sVultim
p1161
I1653
sVcoupl
p1162
I2371
sVstretch
p1163
I262
sVwest
p1164
I263
sVhardli
p1165
I2372
sVmari
p1166
I1654
sVmark
p1167
I1655
sVbreath
p1168
I264
sVaddit
p1169
I2704
sVravioli
p1170
I2373
sVeateri
p1171
I2374
sVmonsieur
p1172
I930
sVtasteless
p1173
I2375
sVala
p1174
I2435
sVthousand
p1175
I265
sVsquash
p1176
I1656
sVchao
p1177
I266
sVsort
p1178
I2623
sVimpati
p1179
I2376
sVformer
p1180
I267
sVsound
p1181
I1657
sVcrumb
p1182
I931
sVchinatown
p1183
I932
sVcast
p1184
I2380
sVlunchtim
p1185
I933
sVpollo
p1186
I268
sVmound
p1187
I2381
sVambienc
p1188
I269
sVive
p1189
I270
sVanytim
p1190
I2382
sVadvantag
p1191
I1658
sVparmigiano
p1192
I1659
sVparmigiana
p1193
I1660
sVchopstick
p1194
I2383
sVworri
p1195
I934
sVdestin
p1196
I1661
sVambient
p1197
I272
sVprotein
p1198
I1662
sVmacadamia
p1199
I1663
sVfame
p1200
I273
sVpar
p1201
I1665
sVharsh
p1202
I1666
sVpay
p1203
I1667
sVbowl
p1204
I2384
sVcheck
p1205
I2250
sVpad
p1206
I1668
sVcatfish
p1207
I2387
sVpan
p1208
I1669
sVweek
p1209
I2389
sVfinish
p1210
I936
sVpasti
p1211
I2747
sVfoam
p1212
I937
sVsomeon
p1213
I938
sVcompanion
p1214
I1671
sVfruit
p1215
I392
sVimprov
p1216
I1650
sVhandsom
p1217
I2390
sVappropri
p1218
I1673
sVburrito
p1219
I939
sVband
p1220
I1674
sVwithout
p1221
I2392
sVveal
p1222
I274
sVmodel
p1223
I2394
sVsummer
p1224
I275
sVoutdoor
p1225
I1675
sVabund
p1226
I942
sVstaircas
p1227
I943
sVpoach
p1228
I276
sVmoney
p1229
I1677
sVgraciou
p1230
I944
sVneon
p1231
I945
sVrest
p1232
I277
sVsteamer
p1233
I278
sVkill
p1234
I2396
sVaspect
p1235
I1678
sVtouch
p1236
I946
sVpolish
p1237
I2397
sVflavor
p1238
I1679
sVblow
p1239
I2398
sVindulg
p1240
I279
sVcilantro
p1241
I280
sVsamba
p1242
I2399
sVclueless
p1243
I1680
sVrosi
p1244
I2400
sVhint
p1245
I439
sVmcdonald
p1246
I1682
sVrose
p1247
I2402
sVexcept
p1248
I445
sVlittl
p1249
I281
sVpile
p1250
I1683
sVtreatment
p1251
I947
sVsampler
p1252
I2403
sVswim
p1253
I455
sVaround
p1254
I282
sVspectacular
p1255
I949
sVread
p1256
I458
sVamb
p1257
I950
sVladi
p1258
I951
sVdark
p1259
I283
sVtemperatur
p1260
I1684
sVcrusti
p1261
I284
sVinsist
p1262
I2369
sVmom
p1263
I1685
sVreat
p1264
I952
sVworld
p1265
I286
sVrear
p1266
I953
sVmod
p1267
I1686
sVclam
p1268
I288
sVclad
p1269
I289
sVfajita
p1270
I954
sVleek
p1271
I163
sVoxtail
p1272
I2405
sVeither
p1273
I1688
sVtower
p1274
I2406
sVnice
p1275
I2601
sVmanag
p1276
I290
sVlaugh
p1277
I2010
sVimpecc
p1278
I956
sVgranit
p1279
I1689
sVlobster
p1280
I291
sVrefresh
p1281
I2495
sVmustard
p1282
I2602
sVfreez
p1283
I2407
sVslice
p1284
I2408
sVmood
p1285
I2409
sVconfirm
p1286
I1690
sVdefinit
p1287
I1892
sVnook
p1288
I293
sVhipster
p1289
I509
sVunbeliev
p1290
I2411
sVtoothsom
p1291
I1691
sVknife
p1292
I1692
sVrefer
p1293
I294
sVwheat
p1294
I957
sVpower
p1295
I295
sVfulli
p1296
I1023
sVthrow
p1297
I958
sVstone
p1298
I296
sVcentral
p1299
I959
sVoh
p1300
I2413
sVisland
p1301
I1931
sVmeal
p1302
I1349
sVchop
p1303
I960
sVpistachio
p1304
I2415
sVdegre
p1305
I961
sVstand
p1306
I2416
sVneighbor
p1307
I298
sVchow
p1308
I962
sVchive
p1309
I2417
sVindustri
p1310
I300
sVmean
p1311
I1351
sVroutin
p1312
I2418
sVeffici
p1313
I302
sVliveli
p1314
I303
sVgari
p1315
I2419
sVhanger
p1316
I2127
sVstrip
p1317
I1693
sVuptown
p1318
I1694
sVyour
p1319
I963
sVlob
p1320
I964
sVarea
p1321
I965
sVhey
p1322
I304
sVstark
p1323
I580
sVstart
p1324
I966
sVfranchis
p1325
I1972
sVlow
p1326
I967
sVlot
p1327
I968
sVbrazilian
p1328
I305
sVbottl
p1329
I306
sVregard
p1330
I2420
sVpitcher
p1331
I969
sVamongst
p1332
I2421
sVspici
p1333
I1695
sVomelet
p1334
I971
sVcurtain
p1335
I2011
sVesqu
p1336
I1696
sVspice
p1337
I1697
sVpull
p1338
I307
sVhire
p1339
I973
sVdirti
p1340
I309
sVjoint
p1341
I2302
sVpossibl
p1342
I1699
sVunusu
p1343
I1700
sVcornmeal
p1344
I974
sVgrass
p1345
I2422
sVgone
p1346
I311
sVac
p1347
I312
sVtasti
p1348
I2423
sVbolognes
p1349
I975
sVcreat
p1350
I314
sVcertain
p1351
I315
sVal
p1352
I316
sVdeep
p1353
I1701
sVnerv
p1354
I976
sVau
p1355
I317
sVaw
p1356
I318
sVcultur
p1357
I1703
sVgirlfriend
p1358
I1704
sVfilm
p1359
I1705
sVcream
p1360
I319
sVincorrect
p1361
I2424
sVloyal
p1362
I2425
sVevent
p1363
I1027
sVtight
p1364
I320
sVcompet
p1365
I2426
sVjuic
p1366
I977
sVpoor
p1367
I978
sVcritic
p1368
I2294
sVgenuin
p1369
I321
sVsublim
p1370
I2005
sVpear
p1371
I979
sVflower
p1372
I1779
sVpeak
p1373
I980
sVbrass
p1374
I2427
sVpeac
p1375
I981
sVpool
p1376
I982
sVreduc
p1377
I983
sVhavana
p1378
I1707
sVwife
p1379
I2428
sVtrattoria
p1380
I2429
sVmask
p1381
I323
sVzimbabw
p1382
I2430
sVcabbag
p1383
I2431
sVmash
p1384
I324
sVheavenli
p1385
I2130
sVu
I1710
sVescap
p1386
I1711
sVplatter
p1387
I2432
sVforget
p1388
I1712
sVlack
p1389
I2434
sVdollar
p1390
I1713
sVmonth
p1391
I984
sVatlant
p1392
I1714
sVabil
p1393
I2436
sVbulb
p1394
I2012
sVdish
p1395
I2438
sVfollow
p1396
I2439
sVporcini
p1397
I1715
sVlace
p1398
I2433
sVchildren
p1399
I1716
sVcarpet
p1400
I985
sVcontent
p1401
I1356
sVtv
p1402
I325
sVts
p1403
I326
sVthursday
p1404
I2441
sVsashimi
p1405
I1717
sVtail
p1406
I327
sVnapoleon
p1407
I2013
sVth
p1408
I328
sVsmile
p1409
I329
sVnori
p1410
I330
sVintroduc
p1411
I331
sVta
p1412
I332
sVcase
p1413
I2378
sVwoman
p1414
I697
sVspaetzl
p1415
I698
sVsong
p1416
I2443
sVfar
p1417
I2444
sVfav
p1418
I2445
sVfat
p1419
I2446
sVprint
p1420
I2447
sVfan
p1421
I1928
sVfall
p1422
I1718
sVfab
p1423
I2449
sVlabor
p1424
I1951
sVramen
p1425
I1719
sVstrang
p1426
I333
sVcommon
p1427
I1813
sVheaven
p1428
I986
sVharri
p1429
I334
sVlist
p1430
I2450
sVcollect
p1431
I2577
sVprosciutto
p1432
I2132
sVstumbl
p1433
I2262
sVsmall
p1434
I335
sVbench
p1435
I2029
sVneighborhood
p1436
I1720
sVten
p1437
I2451
sVbistro
p1438
I2452
sVtea
p1439
I2453
sVpast
p1440
I336
sVburger
p1441
I1721
sVrate
p1442
I2454
sVdesign
p1443
I2455
sVpass
p1444
I337
sVcasual
p1445
I988
sVribbon
p1446
I1722
sVexcit
p1447
I1723
sVstood
p1448
I1724
sVsub
p1449
I2456
sVclock
p1450
I338
sVsun
p1451
I2457
sVsection
p1452
I339
sVabl
p1453
I1725
sVdcor
p1454
I1726
sVpublic
p1455
I1727
sVversion
p1456
I2461
sVdeepli
p1457
I2462
sVplush
p1458
I1078
sVburgundi
p1459
I340
sVfull
p1460
I341
sVhash
p1461
I342
sVvariat
p1462
I1729
sVsophist
p1463
I1730
sVdepend
p1464
I1506
sVstrong
p1465
I990
sVlegend
p1466
I343
sVvalu
p1467
I1731
sVsearch
p1468
I1732
sVinattent
p1469
I767
sVahead
p1470
I991
sVpiquant
p1471
I2464
sVvegetarian
p1472
I992
sVguacamol
p1473
I344
sVstorefront
p1474
I1733
sVprior
p1475
I345
sVamount
p1476
I993
sVlasagna
p1477
I1734
sVpick
p1478
I346
sVaction
p1479
I347
sVluck
p1480
I348
sVspoil
p1481
I2703
sVshanghai
p1482
I2606
sVsouffl
p1483
I994
sVfriendli
p1484
I1137
sVput
p1485
I1037
sVfamili
p1486
I996
sVestablish
p1487
I1736
sVmemor
p1488
I1737
sVselect
p1489
I350
sVeye
p1490
I1738
sVkhao
p1491
I997
sVdistinct
p1492
I1739
sVtacki
p1493
I2231
sVtwo
p1494
I1740
sVrustic
p1495
I2466
sVpearl
p1496
I351
sVmorn
p1497
I352
sVtaken
p1498
I999
sVchicken
p1499
I2681
sVunprofession
p1500
I353
sVchestnut
p1501
I1000
sVflat
p1502
I2467
sVdoor
p1503
I354
sVhundr
p1504
I355
sVhurri
p1505
I1001
sVlemoni
p1506
I1742
sVyuca
p1507
I1002
sVmill
p1508
I1504
sVstick
p1509
I2469
sVbroke
p1510
I1004
sVparticular
p1511
I1743
sVmagnific
p1512
I1744
sVcompani
p1513
I357
sVflan
p1514
I2472
sVglad
p1515
I989
sVtown
p1516
I1745
sVgrill
p1517
I1005
sVnone
p1518
I2266
sVhour
p1519
I1746
sVhous
p1520
I1747
sVtapioca
p1521
I2473
sVmall
p1522
I358
sVdel
p1523
I1749
sVning
p1524
I1006
sVlearn
p1525
I2275
sVmale
p1526
I359
sVdef
p1527
I1750
sVorlean
p1528
I2475
sVprompt
p1529
I360
sVeclect
p1530
I2344
sVshare
p1531
I1751
sVautumn
p1532
I361
sVminimum
p1533
I1752
sVave
p1534
I2720
sVsharp
p1535
I1753
sVdress
p1536
I362
sVhuge
p1537
I363
sVbrowni
p1538
I364
sVfreshli
p1539
I365
sVdivid
p1540
I2478
sVrather
p1541
I2479
sVanoth
p1542
I1008
sVstripe
p1543
I1844
sVcomfort
p1544
I1756
sVdivin
p1545
I2480
sVmapl
p1546
I1757
sVeveryday
p1547
I1664
sVquesadilla
p1548
I1758
sVsimpl
p1549
I366
sVgoat
p1550
I872
sVplant
p1551
I367
sVsandwich
p1552
I2481
sVokay
p1553
I2482
sVwaitstaff
p1554
I368
sVsoundtrack
p1555
I369
sVblood
p1556
I1759
sVmaitr
p1557
I2483
sVbackyard
p1558
I370
sVplank
p1559
I371
sVvintag
p1560
I894
sVshort
p1561
I2485
sVloud
p1562
I1360
sVdragon
p1563
I1761
sVcaus
p1564
I2486
sVsnotti
p1565
I372
sVhalibut
p1566
I2487
sVegg
p1567
I909
sVpatio
p1568
I373
sVfeed
p1569
I2510
sVmexican
p1570
I349
sVhelp
p1571
I1012
sVartwork
p1572
I2267
sVsooo
p1573
I1013
sVsoon
p1574
I1014
sVheld
p1575
I1015
sVisnt
p1576
I2489
sVpaper
p1577
I374
sVdough
p1578
I1762
sVcrabcak
p1579
I1763
sVbric
p1580
I2359
sVbroadway
p1581
I375
sVsuffer
p1582
I1764
sVbrie
p1583
I376
sVlatt
p1584
I1765
sVstyle
p1585
I2490
sVsommeli
p1586
I1766
sVsumptuou
p1587
I377
sVlate
p1588
I1767
sVfriendliest
p1589
I1017
sVpenn
p1590
I1768
sVdelici
p1591
I1018
sVcool
p1592
I2269
sVmight
p1593
I2491
sValter
p1594
I2492
sVfool
p1595
I1019
sVrecip
p1596
I512
sVgood
p1597
I1770
sVreturn
p1598
I2493
sVfood
p1599
I935
sVye
p1600
I1020
sVwasabi
p1601
I380
sVfoot
p1602
I1021
sVrecit
p1603
I513
sVyr
p1604
I1022
sVcomplain
p1605
I1772
sVbigger
p1606
I2494
sVfeet
p1607
I2513
sVhook
p1608
I1361
sVauthent
p1609
I382
sVeasili
p1610
I1773
sVachiev
p1611
I383
sVcompris
p1612
I2496
sVfound
p1613
I384
sVlantern
p1614
I1481
sVpoblano
p1615
I2725
sVmichael
p1616
I1141
sVfish
p1617
I1774
sVhard
p1618
I1775
sVidea
p1619
I1776
sVrealli
p1620
I385
sVheavi
p1621
I1025
sVoil
p1622
I1670
sVexpect
p1623
I2498
sVkobe
p1624
I2499
sVcolumbia
p1625
I628
sVenergi
p1626
I1777
sVbeyond
p1627
I1026
sVreduct
p1628
I386
sVlemongrass
p1629
I1028
sVagre
p1630
I387
sValcohol
p1631
I2500
sVteak
p1632
I1029
sVtempura
p1633
I2314
sVtiramisu
p1634
I388
sVsilki
p1635
I389
sVyellowtail
p1636
I1030
sVhill
p1637
I2501
sVsparingli
p1638
I390
sVass
p1639
I1031
sVextraordinari
p1640
I1780
sVgorgeou
p1641
I2502
sVbass
p1642
I1032
sVadvanc
p1643
I2503
sVpud
p1644
I1033
sVfriday
p1645
I2504
sVdiffer
p1646
I2505
sVpub
p1647
I1034
sVpleasant
p1648
I2463
sVquick
p1649
I2271
sVreason
p1650
I1035
sVbase
p1651
I1036
sVbeliev
p1652
I391
sVanchovi
p1653
I2404
sVask
p1654
I995
sVluger
p1655
I2506
sVsidewalk
p1656
I2507
sVthrown
p1657
I2508
sVenglish
p1658
I2728
sVsuccess
p1659
I2034
sVbenedict
p1660
I401
sVamerican
p1661
I1039
sVw
I393
sVpoivr
p1662
I1366
sVels
p1663
I2214
sVmiso
p1664
I1040
sVcopper
p1665
I1781
sVmajor
p1666
I394
sVguac
p1667
I395
sVdont
p1668
I1782
sVobviou
p1669
I1041
sVfeel
p1670
I2512
sVfamou
p1671
I1016
sVnumber
p1672
I396
sVceleb
p1673
I397
sVsmaller
p1674
I2609
sVdone
p1675
I1783
sVpretenti
p1676
I1024
sVbland
p1677
I2514
sVhorribl
p1678
I398
sVmiss
p1679
I1042
sVfanci
p1680
I2515
sVblanc
p1681
I2516
sVguess
p1682
I399
sVguest
p1683
I400
sVblossom
p1684
I1043
sVleast
p1685
I1784
sVscallion
p1686
I2517
sVpaint
p1687
I1785
sVstori
p1688
I2518
sVwonderful
p1689
I1164
sVstorm
p1690
I2519
sVmama
p1691
I1786
sVton
p1692
I2146
sVsyrup
p1693
I2520
sVbanana
p1694
I1045
sVstore
p1695
I2521
sVoption
p1696
I2522
sVbehind
p1697
I1643
sVparm
p1698
I1787
sVhotel
p1699
I2523
sVpark
p1700
I1788
sVpari
p1701
I1789
sVpart
p1702
I1790
sVwarmli
p1703
I402
sVtheater
p1704
I403
sVgrace
p1705
I404
sVking
p1706
I2524
sVtortellini
p1707
I405
sVb
I1791
sVwhenev
p1708
I2526
sVgotten
p1709
I1792
sVremov
p1710
I2527
sVgroceri
p1711
I1046
sVarrang
p1712
I406
sVstale
p1713
I1081
sVtoward
p1714
I1047
sVdanc
p1715
I2528
sVaccomod
p1716
I1906
sVatmospher
p1717
I2529
sVurban
p1718
I2148
sVwasnt
p1719
I1048
sVbeforehand
p1720
I407
sVmarbl
p1721
I2530
sVpackag
p1722
I2562
sVcomplet
p1723
I2203
sVblond
p1724
I408
sVrequisit
p1725
I409
sVjuici
p1726
I1051
sVsell
p1727
I410
sVimagin
p1728
I1052
sVequival
p1729
I411
sVtrip
p1730
I2385
sVodd
p1731
I521
sVself
p1732
I413
sVcouch
p1733
I43
sVlit
p1734
I1054
sValso
p1735
I414
sVbuild
p1736
I1793
sVzucchini
p1737
I1794
sVplay
p1738
I415
sVeater
p1739
I1055
sVpreviou
p1740
I1795
sVsalmon
p1741
I1796
sVmixtur
p1742
I1056
sVbrooklyn
p1743
I416
sVcharm
p1744
I1797
sVplan
p1745
I417
sVeaten
p1746
I1057
sVfaux
p1747
I2669
sVchard
p1748
I1798
sVoyster
p1749
I418
sVamaz
p1750
I2534
sVclear
p1751
I1058
sVcover
p1752
I419
sVmammoth
p1753
I1800
sVrestur
p1754
I420
sVtongu
p1755
I1059
sVsturdi
p1756
I1060
sVnotch
p1757
I2535
sVblend
p1758
I1062
sVawesom
p1759
I1063
sVflavo
p1760
I2536
sVcroquett
p1761
I1135
sVchowder
p1762
I421
sVridicul
p1763
I2537
sVgold
p1764
I422
sVvelveti
p1765
I1064
sVflicker
p1766
I1065
sVmoroccan
p1767
I423
sVparticularli
p1768
I1801
sVfillet
p1769
I1520
sVfireplac
p1770
I424
sVreput
p1771
I425
sVfine
p1772
I1802
sVfind
p1773
I1803
sVurchin
p1774
I525
sVaccess
p1775
I1910
sVgiant
p1776
I1804
sVexecut
p1777
I1676
sVpretti
p1778
I1066
sVmusic
p1779
I16
sVruin
p1780
I1805
sVgooey
p1781
I426
sVhip
p1782
I2538
sVhit
p1783
I2539
sVpalett
p1784
I1068
sVexpress
p1785
I1806
sVkind
p1786
I2525
sVbatter
p1787
I1807
sVbreast
p1788
I1808
sVbasement
p1789
I1069
sVgratin
p1790
I427
sVsunni
p1791
I428
sVmolten
p1792
I1070
sVuncomfort
p1793
I1809
sVhomag
p1794
I1810
sVcrabmeat
p1795
I1811
sVbrasseri
p1796
I1812
sVantiqu
p1797
I1071
sVtavern
p1798
I1606
sVcaramel
p1799
I429
sVpaella
p1800
I61
sVhype
p1801
I1072
sVx
I1073
sVriver
p1802
I430
sVcro
p1803
I431
sVcramp
p1804
I1074
sVset
p1805
I432
sVart
p1806
I2540
sVoverwhelm
p1807
I433
sVdelux
p1808
I1075
sVcelebr
p1809
I2260
sVtip
p1810
I2252
sVsee
p1811
I434
sVbare
p1812
I2541
sVsea
p1813
I435
sVtender
p1814
I1814
sVportrait
p1815
I1076
sVark
p1816
I2542
sVarm
p1817
I2543
sVempanada
p1818
I2544
sVexpert
p1819
I1816
sVwow
p1820
I1219
sVgrandmoth
p1821
I1077
sVwoo
p1822
I1079
sVcreme
p1823
I2546
sVexperi
p1824
I1818
sVcompliment
p1825
I437
sValtern
p1826
I1819
sVsolo
p1827
I2547
sVlatin
p1828
I2548
sVappreci
p1829
I1820
sVnumer
p1830
I1080
sVcomplement
p1831
I1821
sVcomplementari
p1832
I1822
sVpurpl
p1833
I1823
sVwater
p1834
I2276
sVc
I2549
sVlast
p1835
I438
sVparad
p1836
I1681
sValon
p1837
I1824
sVsardin
p1838
I1825
sVvenu
p1839
I2009
sVpatti
p1840
I440
sVentertain
p1841
I2278
sVeggplant
p1842
I1082
sVbuzz
p1843
I1251
sVvault
p1844
I1084
sVwhole
p1845
I441
sVload
p1846
I442
sVloaf
p1847
I443
sVsimpli
p1848
I1827
sVdistress
p1849
I2550
sVdrunk
p1850
I444
sVsweet
p1851
I2551
sVcrispi
p1852
I2552
sVsmother
p1853
I1829
sVscallop
p1854
I446
sVcarlo
p1855
I1908
sVcollard
p1856
I2212
sVrave
p1857
I1263
sVmistak
p1858
I2553
sVthroughout
p1859
I1830
sVsever
p1860
I1439
sVps
p1861
I2554
sVdevil
p1862
I447
sVjava
p1863
I2555
sVcasa
p1864
I2379
sVoverlook
p1865
I2556
sVdue
p1866
I2557
sVempti
p1867
I1086
sVbuttermilk
p1868
I1271
sVsecret
p1869
I1831
sVnewcom
p1870
I1087
sVdamn
p1871
I1088
sVbrick
p1872
I2558
sVbubbl
p1873
I2440
sVpm
p1874
I2559
sVflight
p1875
I2560
sVboy
p1876
I1525
sVfire
p1877
I448
sVphilli
p1878
I1049
sVfrite
p1879
I449
sVcoordin
p1880
I1289
sVpricey
p1881
I1832
sVunderstand
p1882
I1833
sVliver
p1883
I1089
sVstandout
p1884
I2279
sVbruschetta
p1885
I1834
sVpesto
p1886
I1769
sVsweetbread
p1887
I451
sVlook
p1888
I1090
sVhostess
p1889
I452
sVsolid
p1890
I1836
sVstraight
p1891
I453
sVbill
p1892
I6
sVbudget
p1893
I454
sVbroth
p1894
I2198
sVpace
p1895
I1091
sVmatch
p1896
I1092
sVfun
p1897
I1837
sVful
p1898
I1838
sVfixtur
p1899
I1093
sVloos
p1900
I1094
sVpack
p1901
I1095
sVreal
p1902
I948
sVpound
p1903
I456
sVreadi
p1904
I1096
sVaromat
p1905
I1919
sVrim
p1906
I2565
sVcevich
p1907
I2566
sVcenturi
p1908
I1840
sVquail
p1909
I2567
sVrib
p1910
I2568
sVtandoori
p1911
I2531
sVdecor
p1912
I457
sVshirt
p1913
I2569
sVswanki
p1914
I2570
sVfunni
p1915
I39
sVitali
p1916
I1842
sVgrand
p1917
I1097
sVsliver
p1918
I2571
sVlie
p1919
I1961
sVwherea
p1920
I2572
sVmoment
p1921
I1843
sVfatti
p1922
I1098
sVextrem
p1923
I1528
sVrobust
p1924
I2573
sVdine
p1925
I2511
sVtypic
p1926
I2619
sVrecent
p1927
I459
sVlower
p1928
I1368
sVentre
p1929
I1845
sVolder
p1930
I1099
sVsavvi
p1931
I1100
sVspent
p1932
I1846
sVpickl
p1933
I461
sVperson
p1934
I64
sVcheer
p1935
I2575
sVchees
p1936
I1381
sVexpens
p1937
I462
sVsherri
p1938
I2532
sVswiss
p1939
I1848
sVtraffic
p1940
I1849
sVdistrict
p1941
I2326
sVtast
p1942
I1850
sVspend
p1943
I1851
sVedgi
p1944
I1390
sVexplan
p1945
I1852
sVtim
p1946
I2401
sVambianc
p1947
I463
sVvietnames
p1948
I1101
sVshape
p1949
I1853
sVstapl
p1950
I1053
sVtin
p1951
I2254
sVcut
p1952
I1854
sVcup
p1953
I1855
sVianc
p1954
I1531
sVeager
p1955
I464
sVhorseradish
p1956
I1583
sVdare
p1957
I287
sVcomplaint
p1958
I1432
sVmarco
p1959
I1102
sVqueso
p1960
I465
sVbig
p1961
I1856
sVgame
p1962
I1103
sVbit
p1963
I1857
sVformal
p1964
I466
sVknock
p1965
I1858
sVleisur
p1966
I467
sVonion
p1967
I642
sVsemi
p1968
I1859
sVshabu
p1969
I2576
sVeel
p1970
I1104
sVyorker
p1971
I2578
sVvibrant
p1972
I2035
sVpopular
p1973
I1105
sVstylish
p1974
I468
sVbamboo
p1975
I1860
sVdownstair
p1976
I1861
sVencount
p1977
I469
sVoften
p1978
I1862
sVtrendi
p1979
I1935
sVspring
p1980
I470
sVsorbet
p1981
I471
sVback
p1982
I1863
sVphone
p1983
I2579
sVsampl
p1984
I472
sVsight
p1985
I473
sVmirror
p1986
I1864
sVfalafel
p1987
I1865
sVserver
p1988
I1687
sVchocol
p1989
I1107
sVper
p1990
I1866
sVsubstitut
p1991
I1867
sVlarg
p1992
I1868
sVretro
p1993
I1509
sVgratuiti
p1994
I1108
sVpea
p1995
I1869
sVmachin
p1996
I474
sVrun
p1997
I1109
sVba
p1998
I475
sVrum
p1999
I1110
sVrub
p2000
I1111
sVraspberri
p2001
I1112
sVbi
p2002
I477
sVster
p2003
I1113
sVbu
p2004
I478
sVstep
p2005
I1114
sVstew
p2006
I1234
sVmeantim
p2007
I2582
sVimpos
p2008
I1872
sVshine
p2009
I1115
sVdelish
p2010
I1873
sVshini
p2011
I1116
sVcandi
p2012
I1262
sVblock
p2013
I1118
sVirrit
p2014
I480
sVwithin
p2015
I1119
sVtofu
p2016
I1120
sVensur
p2017
I1121
sVunderst
p2018
I482
sVoccupi
p2019
I483
sVspan
p2020
I484
sVsock
p2021
I485
sVlong
p2022
I1195
sVcustom
p2023
I486
sVcharg
p2024
I1799
sVsuit
p2025
I487
sVforward
p2026
I1877
sVproperli
p2027
I1611
sVrepeatedli
p2028
I2586
sVfishi
p2029
I1122
sVfilet
p2030
I2587
sVposter
p2031
I488
sVatop
p2032
I489
sVfrost
p2033
I1123
sVpaneer
p2034
I1124
sVcloth
p2035
I2588
sVdulc
p2036
I1125
sVtranslat
p2037
I1878
sVrussian
p2038
I1126
sVline
p2039
I490
sVbutteri
p2040
I491
sVspecialti
p2041
I1127
sVconsist
p2042
I2589
sVus
p2043
I492
sVintim
p2044
I493
sVun
p2045
I494
sVtoday
p2046
I2290
sVsum
p2047
I2458
sVjumbo
p2048
I1879
sVhighlight
p2049
I2590
sVz
I2591
sVchelsea
p2050
I1128
sVyakitori
p2051
I1129
sVcurv
p2052
I1880
sVdill
p2053
I2592
sVfreak
p2054
I2593
sVproceed
p2055
I2465
sVflow
p2056
I2163
sVhaunt
p2057
I495
sVrepres
p2058
I1130
sVchar
p2059
I496
sVcurd
p2060
I1882
sVcure
p2061
I1883
sVchat
p2062
I271
sVhome
p2063
I2594
sVcaff
p2064
I1884
sVcafe
p2065
I1885
sVrainbow
p2066
I2595
sVmeatloaf
p2067
I2740
sVlemon
p2068
I2596
sVpeach
p2069
I2597
sVsaffron
p2070
I2598
sVexud
p2071
I497
sVclub
p2072
I840
sVgra
p2073
I2600
sVmanhattan
p2074
I1131
sVtart
p2075
I498
sVdraw
p2076
I1132
sVclean
p2077
I1133
sVutterli
p2078
I1886
sVlend
p2079
I1887
sVimpress
p2080
I2624
sVcater
p2081
I1888
sVdesert
p2082
I1889
sVdeserv
p2083
I1890
sVago
p2084
I499
sVe
I1134
sVlead
p2085
I2742
sVage
p2086
I500
sVdaikon
p2087
I1891
sVdot
p2088
I1391
sVseawe
p2089
I501
sVfresh
p2090
I502
sVbuffalo
p2091
I2603
sVstroller
p2092
I136
sVedg
p2093
I2604
sVscratch
p2094
I503
sVsoften
p2095
I504
sVsteve
p2096
I2605
sVgo
p2097
I1136
sVgossip
p2098
I665
sVlyche
p2099
I1893
sVencrust
p2100
I505
sVculinari
p2101
I1728
sVprivat
p2102
I1894
sVturkish
p2103
I506
sVpeanut
p2104
I1895
sVelsewher
p2105
I1896
sVyoung
p2106
I507
sVsend
p2107
I508
sVbecam
p2108
I1897
sVsens
p2109
I356
sVsent
p2110
I510
sVgarden
p2111
I511
sVsausag
p2112
I1138
sVdessert
p2113
I1898
sVwave
p2114
I1139
sVspoon
p2115
I2607
sVvolum
p2116
I1899
sVwipe
p2117
I378
sVtri
p2118
I379
sVmagic
p2119
I381
sVstiff
p2120
I1140
sVarray
p2121
I2323
sVshock
p2122
I1900
sVtre
p2123
I514
sVeve
p2124
I515
sVoverli
p2125
I1901
sVmarri
p2126
I516
sVrack
p2127
I517
sVpleas
p2128
I2608
sVnestl
p2129
I1902
sVfortun
p2130
I1903
sVmeticul
p2131
I1142
sVnatur
p2132
I518
sVmediterranean
p2133
I519
sVpepper
p2134
I2041
sVmural
p2135
I1904
sVsoul
p2136
I1540
sVjump
p2137
I1144
sVfold
p2138
I2610
sVvideo
p2139
I520
sVbooth
p2140
I1145
sVearth
p2141
I2168
sVspaghetti
p2142
I412
sVfolk
p2143
I2611
sVcompar
p2144
I2612
sVsoup
p2145
I1542
sVresembl
p2146
I1909
sVworthi
p2147
I1771
sVsangria
p2148
I1148
sVcell
p2149
I1149
sVindian
p2150
I522
sVjuggl
p2151
I2613
sVdissapoint
p2152
I523
sVbird
p2153
I524
sVcan
p2154
I842
sVcaper
p2155
I75
sVchose
p2156
I2614
sVleg
p2157
I436
sVsexi
p2158
I2615
sVpunch
p2159
I526
sVbodi
p2160
I1912
sVlet
p2161
I527
sVcozi
p2162
I2616
sVtownhous
p2163
I1943
sVsing
p2164
I1913
sVbecom
p2165
I1150
sVsinc
p2166
I1914
sVvinegar
p2167
I528
sVgreat
p2168
I529
sVtalent
p2169
I1916
sVconvers
p2170
I1151
sVemuls
p2171
I1917
sVconceiv
p2172
I1918
sVlarger
p2173
I2617
sVvacat
p2174
I1152
sVsnobbi
p2175
I2618
sVscatter
p2176
I531
sVweekday
p2177
I1920
sVearli
p2178
I1921
sVmussel
p2179
I533
sVchang
p2180
I1875
sVhonor
p2181
I1922
sVchanc
p2182
I1153
sVclaim
p2183
I1545
sVapp
p2184
I2620
sVwit
p2185
I1154
sVduck
p2186
I2621
sVlime
p2187
I1923
sVcha
p2188
I1924
sVuse
p2189
I1871
sVcommun
p2190
I479
sVdoubl
p2191
I534
sVnext
p2192
I481
sVwebsit
p2193
I1925
sVcrab
p2194
I1155
sVpanel
p2195
I2047
sVbelgian
p2196
I1156
sVsteakhous
p2197
I1926
sVpolenta
p2198
I1397
sVbabi
p2199
I535
sVmismatch
p2200
I1157
sVflaki
p2201
I2048
sVtrain
p2202
I1927
sVrabbit
p2203
I2625
sVok
p2204
I2412
sVstarter
p2205
I1158
sVwomen
p2206
I2626
sVannoy
p2207
I2627
sVaccount
p2208
I1929
sVcodfish
p2209
I82
sVsalad
p2210
I1159
sVride
p2211
I1160
sVrenov
p2212
I1905
sVpour
p2213
I537
sVdonut
p2214
I1161
sVobvious
p2215
I1930
sVthin
p2216
I538
sVmeet
p2217
I1162
sVbouncer
p2218
I2574
sVdidnt
p2219
I530
sVpeke
p2220
I539
sVcontrol
p2221
I1163
sVtap
p2222
I2628
sVbent
p2223
I540
sVpatron
p2224
I2629
sVprocess
p2225
I541
sVhigh
p2226
I542
sVcarrot
p2227
I2630
sVcondescend
p2228
I2631
sVtab
p2229
I1932
sVtan
p2230
I2632
sVshrimp
p2231
I2414
sVskirt
p2232
I1165
sVhangar
p2233
I1933
sVeverywher
p2234
I544
sVsip
p2235
I2634
sVsit
p2236
I1942
sVvibe
p2237
I1166
sVsix
p2238
I2635
sVwilliamsburg
p2239
I1936
sVdelay
p2240
I543
sVlamp
p2241
I1937
sVfeta
p2242
I1938
sVinstead
p2243
I2636
sVstock
p2244
I1939
sVfare
p2245
I1167
sVlamb
p2246
I1934
sVattend
p2247
I2637
sVfarm
p2248
I1169
sVwatch
p2249
I2173
sVact
p2250
I299
sVwateri
p2251
I1940
sVupscal
p2252
I2638
sVattent
p2253
I2639
sVtaco
p2254
I2640
sVtier
p2255
I545
sVphilosophi
p2256
I645
sVtomato
p2257
I546
sVvillag
p2258
I2641
sVbakeri
p2259
I1170
sVdrape
p2260
I1941
sVhonestli
p2261
I2642
sVclassi
p2262
I547
sVseriou
p2263
I548
sVcounter
p2264
I549
sVelement
p2265
I550
sVissu
p2266
I551
sVscoop
p2267
I1171
sVallow
p2268
I552
sVcattl
p2269
I1172
sVmartini
p2270
I2644
sVmovi
p2271
I553
sVmove
p2272
I554
sVcitysearch
p2273
I1173
sVscrumptiou
p2274
I1945
sVmojito
p2275
I2645
sVsoggi
p2276
I1174
sVbutternut
p2277
I1946
sVbunch
p2278
I1947
sVperfect
p2279
I555
sVsuperior
p2280
I2646
sVle
p2281
I1948
sVremark
p2282
I1915
sVla
p2283
I1949
sVlo
p2284
I1950
sVlech
p2285
I2647
sVchutney
p2286
I86
sVlu
p2287
I1952
sVcotta
p2288
I2648
sVricotta
p2289
I2649
sVdecad
p2290
I557
sVholiday
p2291
I2650
sVjukebox
p2292
I2651
sVrecept
p2293
I558
sVbaguett
p2294
I1953
sVlegendari
p2295
I559
sVhandl
p2296
I1176
sVdan
p2297
I1954
sVoveral
p2298
I560
sVswordfish
p2299
I1955
sVearn
p2300
I1841
sVmention
p2301
I1956
sVkiss
p2302
I561
sVfront
p2303
I1177
sVcombo
p2304
I2684
sVnnais
p2305
I1957
sVday
p2306
I1958
sVgreasi
p2307
I1358
sVminimalist
p2308
I562
sVsomewher
p2309
I1178
sVthrill
p2310
I1959
sVanyth
p2311
I563
sVfeast
p2312
I2652
sVslide
p2313
I1180
sVweather
p2314
I2755
sVtrap
p2315
I2653
sVtray
p2316
I2654
sVflair
p2317
I1960
sVsilverwar
p2318
I1181
sVbump
p2319
I564
sVchunk
p2320
I1183
sVdrizzl
p2321
I1184
sVlentil
p2322
I1963
sVbay
p2323
I1402
sVspaciou
p2324
I566
sVspecial
p2325
I1185
sVnick
p2326
I2599
sVtwice
p2327
I2175
sVinfluenc
p2328
I1186
sVtrulli
p2329
I567
sVstuf
p2330
I1965
sVrel
p2331
I172
sVwich
p2332
I1187
sVstun
p2333
I1966
sVred
p2334
I1967
sVree
p2335
I676
sVstare
p2336
I568
sVumbrella
p2337
I1188
sVinsid
p2338
I1968
sVspot
p2339
I1189
sVtempl
p2340
I569
sVyork
p2341
I2658
sVembarrass
p2342
I570
sVpromptli
p2343
I2659
sVchilli
p2344
I571
sVnowher
p2345
I2660
sVarchitectur
p2346
I1706
sVg
I2661
sVspill
p2347
I241
sVcould
p2348
I572
sVkeep
p2349
I1190
sVlength
p2350
I574
sVshred
p2351
I1191
sVoutsid
p2352
I575
sVwaitress
p2353
I711
sVveggi
p2354
I576
sVfinest
p2355
I1971
sVblown
p2356
I578
sVqualiti
p2357
I1192
sVscene
p2358
I579
sVdrinker
p2359
I1193
sVscent
p2360
I582
sVtablecloth
p2361
I1194
sVperfectli
p2362
I1196
sVaccent
p2363
I2662
sVsystem
p2364
I583
sVsumatra
p2365
I1197
sVbartend
p2366
I584
sVponzu
p2367
I2663
sVpancak
p2368
I2664
sVfinal
p2369
I1198
sVboil
p2370
I2665
sVshell
p2371
I2666
sVstomach
p2372
I585
sVkaraok
p2373
I1974
sVaccompani
p2374
I586
sVtuscan
p2375
I587
sVshelv
p2376
I2667
sVexactli
p2377
I1199
sVpractic
p2378
I2300
sVsteel
p2379
I588
sVphotograph
p2380
I2335
sVprune
p2381
I1976
sVbother
p2382
I589
sVbed
p2383
I1200
sVcharact
p2384
I1977
sVlover
p2385
I1978
sVindia
p2386
I695
sVbet
p2387
I1201
sVterribl
p2388
I590
sVclearli
p2389
I591
sVcavern
p2390
I771
sVlightli
p2391
I1202
sVreserv
p2392
I1815
sVneed
p2393
I1203
sVoffens
p2394
I858
sVborder
p2395
I1204
sVscrew
p2396
I1205
sVdepict
p2397
I636
sVsevich
p2398
I1980
sVshank
p2399
I2758
sVsoak
p2400
I592
sVlinen
p2401
I1944
sVexpos
p2402
I2211
sVmid
p2403
I1982
sVmig
p2404
I1983
sVbagel
p2405
I2672
sVmix
p2406
I1984
sVsh
p2407
I1206
sVkorean
p2408
I786
sVbrand
p2409
I2057
sVsingl
p2410
I1208
sVunagi
p2411
I1209
sVtextur
p2412
I1210
sVenerget
p2413
I1211
sVunless
p2414
I1985
sVgalleri
p2415
I1212
sVdiscov
p2416
I1213
sVmimosa
p2417
I1214
sVbasket
p2418
I1565
sVeight
p2419
I1986
sVawe
p2420
I1215
sVclass
p2421
I2674
sVbarista
p2422
I2675
sVdens
p2423
I2676
sVgather
p2424
I1987
sVupset
p2425
I1216
sVcasserol
p2426
I594
sVface
p2427
I595
sVinde
p2428
I1218
sVdeni
p2429
I2679
sVpastri
p2430
I1610
sVoccasion
p2431
I1989
sVsometh
p2432
I1817
sVfact
p2433
I596
sVanyway
p2434
I1220
sVbring
p2435
I597
sVrough
p2436
I598
sVtexa
p2437
I1990
sVeas
p2438
I2682
sVstaff
p2439
I1991
sVha
p2440
I48
sVnoir
p2441
I599
sVnois
p2442
I600
sVtowner
p2443
I2174
sVforev
p2444
I1221
sVtapa
p2445
I601
sVjam
p2446
I602
sVsuppos
p2447
I603
sVintrigu
p2448
I604
sVpiano
p2449
I2685
sVlocal
p2450
I2686
sVhope
p2451
I1067
sVmeant
p2452
I605
sVcube
p2453
I2687
sVcontribut
p2454
I2295
sVstrawberri
p2455
I1698
sVbeat
p2456
I1994
sVfamiliar
p2457
I606
sVtripl
p2458
I308
sVbear
p2459
I1996
sVbatali
p2460
I1222
sVbean
p2461
I1998
sVbead
p2462
I1999
sVlucki
p2463
I607
sVendless
p2464
I1223
sVgray
p2465
I1224
sVorgan
p2466
I2000
sVcountrysid
p2467
I1225
sVh
I608
sVwhether
p2468
I2761
sVstuff
p2469
I609
sVcontain
p2470
I1226
sVgrab
p2471
I1227
sVview
p2472
I2690
sVnoodl
p2473
I610
sVsignatur
p2474
I2691
sVhardwood
p2475
I1228
sVframe
p2476
I611
sVknowledg
p2477
I2692
sVapolog
p2478
I2001
sVpowder
p2479
I1229
sVartsi
p2480
I2693
sVundercook
p2481
I2002
sVcloser
p2482
I2694
sVstatu
p2483
I1230
sVcubano
p2484
I2324
sVpattern
p2485
I2003
sVcours
p2486
I2477
sVcomplai
p2487
I2004
sVtend
p2488
I1231
sVfavor
p2489
I2697
sVwritten
p2490
I1232
sVlimit
p2491
I1280
sVneither
p2492
I1233
sVamus
p2493
I678
sVmidnight
p2494
I2305
sVbought
p2495
I2698
sVginger
p2496
I1376
sVragu
p2497
I310
sVjob
p2498
I2700
sVentir
p2499
I2701
sVjoe
p2500
I2702
sVkey
p2501
I1235
sVthank
p2502
I1571
sVjoke
p2503
I2006
sVequal
p2504
I2007
sVetc
p2505
I613
sVadmit
p2506
I1236
sVbisqu
p2507
I1847
sVsesam
p2508
I2388
sVpuff
p2509
I614
sVjersey
p2510
I1237
sVcomment
p2511
I940
sVco
p2512
I615
sVwall
p2513
I2705
sVca
p2514
I616
sVarriv
p2515
I2706
sVwalk
p2516
I2707
sVarugula
p2517
I617
sVoregano
p2518
I618
sVrespect
p2519
I2708
sVwalnut
p2520
I1175
sVad
p2521
I313
sVquit
p2522
I1238
sVslowli
p2523
I1239
sVdecent
p2524
I2709
sVcompot
p2525
I2710
sVyam
p2526
I1240
sVbesid
p2527
I2711
sVtreat
p2528
I1241
sVupbeat
p2529
I972
sVimmedi
p2530
I619
sVbbq
p2531
I2712
sVtogeth
p2532
I620
sVhamburg
p2533
I1242
sVador
p2534
I621
sVfurnitur
p2535
I1243
sVbrunch
p2536
I1244
sVfellow
p2537
I1702
sVspain
p2538
I622
sVoctopu
p2539
I2315
sVingredi
p2540
I1245
sVmulti
p2541
I2014
sVplain
p2542
I2015
sVvanilla
p2543
I2715
sVhomey
p2544
I987
sVharder
p2545
I1246
sVfocaccia
p2546
I2213
sVwill
p2547
I2716
sVdefin
p2548
I2016
sVounc
p2549
I623
sVwild
p2550
I2717
sVultra
p2551
I624
sVill
p2552
I2017
sVlayer
p2553
I2718
sVmotif
p2554
I2719
sVengag
p2555
I1247
sValmost
p2556
I998
sVsquid
p2557
I2018
sVlush
p2558
I625
sVsite
p2559
I1003
sVpartner
p2560
I2019
sVsurprisingli
p2561
I626
sVpresent
p2562
I2714
sVwelcom
p2563
I2484
sVjapanes
p2564
I2020
sVparti
p2565
I1249
sVbegan
p2566
I2488
sVcross
p2567
I2721
sVmember
p2568
I2722
sVinch
p2569
I2723
sVfill
p2570
I2021
sVdifficult
p2571
I2724
sVnightli
p2572
I1250
sVprais
p2573
I2023
sVball
p2574
I627
sVpho
p2575
I1010
sValot
p2576
I1826
sVexpans
p2577
I629
sVdrink
p2578
I630
sVupon
p2579
I631
sVeffect
p2580
I1252
sVcoffe
p2581
I632
sVpleasantli
p2582
I633
sVexot
p2583
I213
sVstudent
p2584
I2726
sVuni
p2585
I1410
sVsuccul
p2586
I1575
sVbroccoli
p2587
I634
sVmosaic
p2588
I1044
sVcenter
p2589
I2024
sVceleri
p2590
I1393
sVantipasto
p2591
I2727
sVwell
p2592
I1255
sVthought
p2593
I2026
sVexampl
p2594
I635
sVchoos
p2595
I2027
sVrush
p2596
I1995
sVusual
p2597
I1061
sVless
p2598
I706
sVboot
p2599
I2729
sVroomi
p2600
I637
sVpalm
p2601
I158
sVheavili
p2602
I2730
sVtone
p2603
I2028
sVskill
p2604
I1256
sVwed
p2605
I638
sVpoint
p2606
I1828
sVsmith
p2607
I2732
sVketchup
p2608
I214
sVadd
p2609
I2030
sVother
p2610
I2734
sVwet
p2611
I639
sVsmart
p2612
I2031
sVkick
p2613
I1257
sVbranch
p2614
I2766
sVpiec
p2615
I640
sVrealiz
p2616
I2032
sVfive
p2617
I641
sVknow
p2618
I2736
sVpress
p2619
I2737
sVcrisp
p2620
I2545
sVlike
p2621
I2033
sVlost
p2622
I1258
sVincred
p2623
I2738
sVcorpor
p2624
I643
sVrisotto
p2625
I1179
sVarepa
p2626
I1259
sVgarlicki
p2627
I644
sVlose
p2628
I1260
sVcandl
p2629
I1261
sVsoft
p2630
I2036
sVheel
p2631
I1117
sVitalian
p2632
I2037
sVclientel
p2633
I646
sVstuffi
p2634
I2038
sVhair
p2635
I2039
sVshabbi
p2636
I2739
sVproper
p2637
I2040
sVthier
p2638
I647
sVpeter
p2639
I1264
sVtransport
p2640
I648
sVleaf
p2641
I2741
sVjalapeno
p2642
I649
sVbroad
p2643
I1265
sVavoid
p2644
I650
sVlean
p2645
I2743
sVfanni
p2646
I1266
sVpassion
p2647
I651
sVsettl
p2648
I2745
sVtrout
p2649
I2746
sVencourag
p2650
I1267
sVslight
p2651
I1147
sVsnapper
p2652
I2042
sVnoisi
p2653
I2043
sVstellar
p2654
I2044
sVhost
p2655
I2045
sVforgiv
p2656
I1085
sValthough
p2657
I2046
sVoffset
p2658
I1268
sVpasta
p2659
I2748
sVkitsch
p2660
I2749
sVstage
p2661
I652
sVcontinu
p2662
I1579
sVsister
p2663
I653
sVactual
p2664
I2049
sVlinger
p2665
I2751
sVcolumn
p2666
I2585
sVbiscuit
p2667
I2752
sVfudg
p2668
I2633
sVown
p2669
I2753
sVabsolut
p2670
I2169
sVautomat
p2671
I2754
sVdoesnt
p2672
I2050
sVbrush
p2673
I2655
sVawhil
p2674
I2051
sVlettuc
p2675
I2052
sVcouldnt
p2676
I1269
sVbombay
p2677
I1270
sVmere
p2678
I654
sVcustard
p2679
I2053
sVtamal
p2680
I2756
sVpictur
p2681
I2054
sVmuseum
p2682
I1272
sVcaviar
p2683
I655
sVoasi
p2684
I1182
sVappl
p2685
I2757
sVinexplic
p2686
I322
sVhassl
p2687
I867
sVcourteou
p2688
I1962
sVdeliveri
p2689
I656
sVbuy
p2690
I2055
sVnorth
p2691
I1273
sVunexpect
p2692
I2056
sVhr
p2693
I1274
sVcoke
p2694
I1207
sVbasic
p2695
I1418
sVhu
p2696
I1275
sVporterhous
p2697
I2759
sVbun
p2698
I2058
sVnut
p2699
I2178
sVgrate
p2700
I657
sVoverflow
p2701
I1276
sVear
p2702
I1277
sVeat
p2703
I1278
sVbud
p2704
I2059
sVhe
p2705
I1279
sVcount
p2706
I658
sVmade
p2707
I2760
sVveget
p2708
I659
sVwish
p2709
I2060
sVj
I2061
sVsmooth
p2710
I660
sVcarpaccio
p2711
I1007
sVcake
p2712
I2762
sVotherwis
p2713
I661
sVproblem
p2714
I662
sVcondiment
p2715
I2064
sVdisplay
p2716
I1281
sVmilkshak
p2717
I2763
sVirish
p2718
I663
sVsirloin
p2719
I664
sVdescript
p2720
I1708
sVnquet
p2721
I2764
sVbustl
p2722
I2311
sVpie
p2723
I2065
sVpig
p2724
I2066
sVtwist
p2725
I1282
sVtabletop
p2726
I2067
sVgirl
p2727
I1580
sVprobabl
p2728
I2068
sVartichok
p2729
I1964
sVnonetheless
p2730
I1254
sVoak
p2731
I2069
sVdetail
p2732
I2070
sVcrust
p2733
I2459
sVfutur
p2734
I1283
sVrememb
p2735
I1284
sVvarieti
p2736
I666
sVpineappl
p2737
I2071
sVrepeat
p2738
I667
sVstar
p2739
I1285
sVmonday
p2740
I668
sVstay
p2741
I1286
sVkinda
p2742
I2767
sVfoie
p2743
I1287
sVappoint
p2744
I1288
sVexperienc
p2745
I2768
sVpate
p2746
I2089
sVcinco
p2747
I2561
sVgelato
p2748
I2769
sVreliabl
p2749
I2770
sVincompet
p2750
I2656
sVjewel
p2751
I2771
sVinvolv
p2752
I1911
sVrule
p2753
I669
sVportion
p2754
I1290
sVcraft
p2755
I2193
sVperhap
p2756
I2509
sVyell
p2757
I2072
sVsincer
p2758
I670
s.