(dp1
Vwoodi
p2
I0
sVmackerel
p3
I2377
sVtamarind
p4
I3822
sVbear
p5
I3566
sVyellow
p6
I2
sVsleek
p7
I1220
sVelvi
p8
I9
sVsecondli
p9
I2379
sVarticul
p10
I4861
sVasian
p11
I2380
sVupsid
p12
I1203
sVclimb
p13
I3421
sVdynamit
p14
I20
sVhate
p15
I3705
sVnquett
p16
I2382
sVdisgust
p17
I3875
sVwhose
p18
I2383
sVcrumbl
p19
I3779
sVshoestr
p20
I1204
sVsorri
p21
I2385
sVcrush
p22
I4386
sVscold
p23
I4
sVlemoni
p24
I3118
sVpancetta
p25
I2387
sVconcret
p26
I3706
sVbuddi
p27
I2388
sVdation
p28
I3446
sVcushi
p29
I375
sVworth
p30
I2438
sVswivel
p31
I5
sVkudo
p32
I1746
sVpoint
p33
I3266
sVskylin
p34
I6
sVlox
p35
I1801
sVcaffein
p36
I53
sVdeli
p37
I7
sVblanket
p38
I1206
sVqueta
p39
I2836
sVvoic
p40
I2390
sVvase
p41
I2391
sVromain
p42
I4767
sVsmack
p43
I2392
sVjack
p44
I3714
sVboot
p45
I4966
sVaffect
p46
I72
sVpoorli
p47
I3704
sVslather
p48
I1208
sVpizzeria
p49
I2837
sVvast
p50
I2394
sVsoba
p51
I3282
sVfour
p52
I3
sVdisturb
p53
I10
sVcroissant
p54
I3770
sVwhisk
p55
I1209
sVbeam
p56
I3568
sVwooden
p57
I11
sVshowcas
p58
I12
sVformica
p59
I3716
sVwednesday
p60
I13
sVfrozen
p61
I4589
sVcholesterol
p62
I2395
sVnondescript
p63
I1211
sVobsess
p64
I2911
sVfritter
p65
I14
sVenjoy
p66
I3718
sVchew
p67
I1212
sVcrispli
p68
I15
sVspeck
p69
I1213
sVnigh
p70
I16
sVfranc
p71
I3509
sVcracker
p72
I3922
sValmond
p73
I3719
sVbacon
p74
I17
sVfoccacia
p75
I2519
sVation
p76
I3205
sVchef
p77
I1214
sVacross
p78
I2934
sVsecond
p79
I18
sVentr
p80
I2397
sVsooth
p81
I19
sVn
I3923
sVillumin
p82
I2398
sVeven
p83
I2399
sVaim
p84
I1407
sVcaptain
p85
I2381
sVhide
p86
I2541
sVentir
p87
I4853
sVneg
p88
I2401
sVamus
p89
I1217
sVasid
p90
I2403
sVboom
p91
I4968
sVasia
p92
I2404
sVdefinetli
p93
I3924
sVfrank
p94
I3511
sVmintu
p95
I2558
sVnew
p96
I2405
sVhmmm
p97
I4355
sVever
p98
I2406
sVdisney
p99
I3727
sVtold
p100
I1218
sVcrunch
p101
I1219
sVmeg
p102
I2408
sVhero
p103
I21
sVmultitud
p104
I4806
sVherb
p105
I22
sVmen
p106
I190
sVremeb
p107
I23
sVseaso
p108
I1221
sVherd
p109
I24
sVmet
p110
I2410
sVextremli
p111
I1222
sVfieri
p112
I2860
sVchina
p113
I25
sVjamon
p114
I2411
sVbustl
p115
I4965
sVpath
p116
I2583
sVsupposedli
p117
I4401
sVpleasur
p118
I1223
sVdori
p119
I26
sVmex
p120
I2413
sVinterpret
p121
I2414
sVchaotic
p122
I3609
sVstrewn
p123
I27
sVdaughter
p124
I1224
sVunremark
p125
I4128
sVk
I28
sVspotti
p126
I29
sVunforgett
p127
I30
sVdri
p128
I2417
sVjame
p129
I228
sVharass
p130
I230
sVsmoke
p131
I1225
sVpermit
p132
I2420
sVcalifornia
p133
I2843
sVsmoki
p134
I1226
sVpack
p135
I2009
sVtremend
p136
I3738
sVgolden
p137
I31
sVimposs
p138
I4135
sVbrule
p139
I3739
sVstraw
p140
I3740
sVsweetest
p141
I2386
sVprune
p142
I3533
sVnewspap
p143
I1227
sVhomemad
p144
I2421
sVmeati
p145
I3741
sVbrought
p146
I32
sVmarina
p147
I1634
sVattitud
p148
I1228
sVgarag
p149
I3925
sVhavent
p150
I3395
sVppl
p151
I3980
sVtotal
p152
I1229
sVu
I3064
sVhighli
p153
I1231
sVoverhear
p154
I2422
sVspoke
p155
I34
sVwould
p156
I3743
sVsweater
p157
I1232
sVbarbi
p158
I4394
sVblueberri
p159
I1233
sVinsult
p160
I1234
sVturquois
p161
I3744
sVoverhead
p162
I288
sVcalm
p163
I2424
sVrecommend
p164
I2425
sVstrike
p165
I36
sVinner
p166
I2350
sVpromptli
p167
I4772
sVtype
p168
I2427
sVsticker
p169
I1411
sVcalf
p170
I2429
sVdistinct
p171
I3111
sVcurtli
p172
I4684
sVmush
p173
I3746
sVfrenzi
p174
I2430
sVrelax
p175
I37
sVgiovanni
p176
I1237
sVrelat
p177
I38
sVpanach
p178
I1238
sVnotic
p179
I39
sVhurt
p180
I40
sVwarn
p181
I2432
sVglass
p182
I41
sVwarm
p183
I2433
sVgrandfath
p184
I307
sVadult
p185
I2435
sVholi
p186
I42
sVsparkl
p187
I3562
sVhole
p188
I43
sVhold
p189
I314
sVorigin
p190
I4136
sVmust
p191
I3750
sVshoot
p192
I3751
sVaccid
p193
I44
sVpride
p194
I3707
sVword
p195
I1240
sVroom
p196
I2436
sVrestor
p197
I1241
sVsweeten
p198
I45
sVwork
p199
I1243
sVmi
p200
I3753
sVworn
p201
I1244
sVwors
p202
I1245
sVera
p203
I1246
sVsweeter
p204
I46
sVmr
p205
I3755
sVelbow
p206
I1247
sViciou
p207
I2611
sVroot
p208
I2440
sVclubbi
p209
I3757
sVcarmel
p210
I3758
sVil
p211
I2612
sVsaturday
p212
I3796
sVvodka
p213
I2441
sVomelett
p214
I47
sVedibl
p215
I48
sVfoodi
p216
I2443
sVleafi
p217
I3274
sVcaptiv
p218
I804
sVinfus
p219
I50
sVlure
p220
I3710
sVexquisit
p221
I1250
sVhoney
p222
I356
sVreplet
p223
I1251
sVwoman
p224
I3035
sVcloth
p225
I4647
sVoverheard
p226
I3759
sVwant
p227
I51
sVbasebal
p228
I1253
sVeveri
p229
I3711
sVknickknack
p230
I3760
sVkeep
p231
I2191
sVattract
p232
I3761
sVrisk
p233
I3712
sVgigant
p234
I1254
sVmotion
p235
I3998
sVend
p236
I3762
sVkeen
p237
I2193
sVrib
p238
I4597
sVtravel
p239
I52
sVappal
p240
I2389
sVrevisit
p241
I54
sVfar
p242
I4363
sVhot
p243
I55
sVhou
p244
I56
sVhor
p245
I57
sVconfin
p246
I389
sVhop
p247
I58
sVscrambl
p248
I2447
sVmoron
p249
I182
sVdisappoint
p250
I1258
sVnegoti
p251
I2449
sVbeach
p252
I1259
sVupdat
p253
I395
sVgrown
p254
I2618
sVbouillabaiss
p255
I1261
sVrise
p256
I3713
sVrecogn
p257
I1262
sVchateaubriand
p258
I4067
sVbday
p259
I1263
sVchines
p260
I1264
sVearlier
p261
I2840
sVlump
p262
I3765
sVbadli
p263
I3766
sVwrong
p264
I61
sVoutshin
p265
I2451
sVlay
p266
I1265
sVbeauti
p267
I62
sVwater
p268
I4056
sVbalthazar
p269
I2452
sVsalsa
p270
I3768
sVlaw
p271
I1266
sVlap
p272
I1267
sVaverag
p273
I1268
sVbelli
p274
I2619
sVmemori
p275
I4077
sVdomin
p276
I1270
sVmaki
p277
I2620
sVthird
p278
I2454
sVfiamma
p279
I2455
sVminim
p280
I4599
sVrevolv
p281
I64
sVchildhood
p282
I65
sVgreek
p283
I1272
sVmaintain
p284
I2456
sVgreen
p285
I1273
sVwaitress
p286
I3520
sVoverstuf
p287
I2457
sVenter
p288
I3774
sVexclus
p289
I2889
sVgreec
p290
I1275
sVharlem
p291
I3776
sVsomeplac
p292
I66
sVorder
p293
I1276
sVbackdrop
p294
I68
sVwine
p295
I69
sVserv
p296
I4158
sVblind
p297
I1640
sVfettuccin
p298
I70
sVdeco
p299
I1193
sVcomposit
p300
I3778
sVcouscou
p301
I1279
sVdevote
p302
I1280
sVmuffin
p303
I1281
sVoffici
p304
I1282
sVzen
p305
I1283
sVfrustrat
p306
I3982
sVmurray
p307
I2459
sVmumbl
p308
I1832
sVcroqu
p309
I71
sVincid
p310
I1284
sVappar
p311
I2393
sVjapan
p312
I1285
sVflexibl
p313
I1286
sVvari
p314
I73
sVwrought
p315
I74
sVyellowfin
p316
I75
sVgentl
p317
I2460
sVfit
p318
I76
sVsavori
p319
I1287
sVdel
p320
I3129
sVfix
p321
I78
sVavocado
p322
I1288
sVlengthi
p323
I4601
sVfresco
p324
I4517
sVcrew
p325
I2462
sVbetter
p326
I2463
sVcarri
p327
I2856
sVoffic
p328
I1289
sVcomplex
p329
I3931
sVlovingli
p330
I79
sVfig
p331
I80
sVfriski
p332
I2464
sVcrea
p333
I2465
sVhidden
p334
I81
sVfin
p335
I82
sVeasier
p336
I83
sVdescend
p337
I1415
sVanim
p338
I2466
sVtourist
p339
I3788
sVsimilar
p340
I2939
sVslate
p341
I84
sVsafe
p342
I1290
sVcamaron
p343
I2467
sVschool
p344
I3715
sVbeverag
p345
I4140
sVbreak
p346
I1291
sVcoloss
p347
I1292
sVbang
p348
I1293
sVpromis
p349
I2469
sVinterrupt
p350
I85
sVokay
p351
I4429
sVnicois
p352
I1294
sVrunni
p353
I522
sVbank
p354
I1295
sVbread
p355
I1296
sVdingi
p356
I1297
sVchoic
p357
I3789
sVtendenc
p358
I1298
sVterrac
p359
I2017
sValex
p360
I3790
sVmeat
p361
I2472
sVthyme
p362
I88
sVrosemari
p363
I2473
sVl
I1300
sVbonu
p364
I2474
sVdumpl
p365
I89
sVaccommod
p366
I90
sVpanini
p367
I2476
sVminiscul
p368
I1301
sVluca
p369
I952
sVroast
p370
I2477
sVpoppi
p371
I1210
sVconfit
p372
I2445
sVarroz
p373
I91
sVoblig
p374
I2481
sVside
p375
I188
sVbone
p376
I2483
sVbond
p377
I551
sVwhim
p378
I93
sVunapp
p379
I3794
sVmediev
p380
I2486
sVlist
p381
I4370
sVenorm
p382
I2487
sVoverflow
p383
I4820
sVspider
p384
I94
sVticket
p385
I4369
sVdrinker
p386
I2199
sVturnip
p387
I95
sVforgot
p388
I2488
sVcapac
p389
I4781
sVpapaya
p390
I3933
sVflock
p391
I1304
sVmarmalad
p392
I3053
sVwhip
p393
I96
sVraini
p394
I2999
sVlait
p395
I3797
sVdrove
p396
I1645
sVvelvet
p397
I2489
sVpalat
p398
I1305
sVgoe
p399
I3063
sVsmirk
p400
I97
sVnewli
p401
I3802
sVprosciutto
p402
I3803
sVrd
p403
I98
sVre
p404
I99
sVpalac
p405
I1307
sVdaniel
p406
I1308
sVrare
p407
I4935
sVnite
p408
I3805
sVreader
p409
I2493
sVgot
p410
I3806
sVsize
p411
I1646
sVforth
p412
I1309
sVnavig
p413
I100
sVdisorgan
p414
I3096
sVfava
p415
I2495
sVrail
p416
I3808
sVnightmar
p417
I101
sVsituat
p418
I621
sVgiven
p419
I4143
sVfree
p420
I3809
sVstandard
p421
I1310
sVtechno
p422
I1311
sVnice
p423
I4667
sVdelicaci
p424
I3769
sVlollipop
p425
I1312
sVafterthought
p426
I4144
sVdrench
p427
I1313
sVallerg
p428
I638
sVate
p429
I103
sVteenag
p430
I104
sVpuzzl
p431
I3811
sVchanterel
p432
I1315
sVangl
p433
I1316
sVraisin
p434
I1317
sVlocal
p435
I4826
sVtakeout
p436
I105
sVflawless
p437
I1318
sVish
p438
I2500
sVfleck
p439
I2501
sVunabl
p440
I106
sVzape
p441
I3517
sVsoda
p442
I3814
sVprofessiona
p443
I2502
sVapp
p444
I4702
sVsubtl
p445
I1319
sVconfus
p446
I107
sVcaught
p447
I1650
sVkin
p448
I2626
sVpristin
p449
I3816
sVteh
p450
I4372
sVrang
p451
I3817
sVtilapia
p452
I2504
sVshopper
p453
I108
sVelmo
p454
I109
sVmingl
p455
I110
sVsupper
p456
I1321
sVwast
p457
I677
sVrank
p458
I3819
sVtostada
p459
I1034
sVrestrict
p460
I3820
sVwash
p461
I111
sVseinfeld
p462
I909
sValreadi
p463
I3821
sVstudi
p464
I2628
sVmessag
p465
I3527
sVgrain
p466
I4859
sVthick
p467
I1323
sVagre
p468
I689
sVfantast
p469
I3823
sVinconspicu
p470
I691
sVhood
p471
I2509
sVhord
p472
I2510
sVtoy
p473
I3824
sVattach
p474
I2207
sVtangi
p475
I112
sVairi
p476
I1324
sVtop
p477
I3825
sVbonito
p478
I2513
sVamsterdam
p479
I2676
sVtangl
p480
I113
sVcalori
p481
I2515
sVdownsid
p482
I3828
sVanthoni
p483
I2361
sVornat
p484
I4679
sVwollenski
p485
I1653
sVmaster
p486
I115
sVsimilarli
p487
I116
sVjohn
p488
I1326
sVbitter
p489
I118
sVlisten
p490
I119
sVbutter
p491
I2630
sVceiling
p492
I3834
sVhangout
p493
I3835
sVescort
p494
I2517
sVseper
p495
I121
sVprivaci
p496
I2208
sVtook
p497
I3837
sVdirect
p498
I3720
sVobnoxi
p499
I2520
sVwestern
p500
I3839
sVsomewhat
p501
I2521
sVhazelnut
p502
I1327
sVhappili
p503
I1328
sVcanopi
p504
I4858
sVsnooti
p505
I122
sVcrawl
p506
I123
sVrockefel
p507
I753
sVpaella
p508
I2187
sValfama
p509
I3841
sVtex
p510
I4377
sVtrek
p511
I124
sVconveni
p512
I427
sVsilli
p513
I759
sVsmokey
p514
I2631
sVmargherita
p515
I2647
sVsceney
p516
I1329
sVprovid
p517
I1330
sVolder
p518
I2021
sVtree
p519
I126
sVhors
p520
I1215
sVmedley
p521
I1331
sVhilari
p522
I1332
sVshower
p523
I127
sVmatter
p524
I2522
sVstreet
p525
I3721
sVflame
p526
I3842
sVbearabl
p527
I775
sVseater
p528
I1334
sVminut
p529
I1335
sVallur
p530
I1830
sVflan
p531
I4413
sVmini
p532
I2523
sVfashion
p533
I3844
sVrefreshingli
p534
I1336
sVrunner
p535
I129
sVboston
p536
I130
sVminc
p537
I791
sVmind
p538
I2526
sVmine
p539
I2527
sVginger
p540
I794
sVtruffl
p541
I1337
sVraw
p542
I3846
sVseed
p543
I2529
sVlull
p544
I926
sVtataki
p545
I1339
sVhotdog
p546
I4612
sVmanchego
p547
I2212
sVseem
p548
I2532
sVchurn
p549
I2533
sVseek
p550
I808
sVminu
p551
I2535
sVdozen
p552
I132
sVtho
p553
I3992
sVquieter
p554
I1340
sVluxuri
p555
I1341
sVterrif
p556
I1342
sVladen
p557
I1343
sVinexpens
p558
I4815
sVlatter
p559
I1344
sVthat
p560
I1658
sVsnow
p561
I3850
sVterrin
p562
I1345
sVclient
p563
I1431
sVproperli
p564
I2067
sVsnob
p565
I3851
sVthoroughli
p566
I3852
sVpicki
p567
I135
sVblue
p568
I3722
sVcurv
p569
I3361
sVcopi
p570
I4154
sVplenti
p571
I3855
sVneo
p572
I2400
sVglob
p573
I3857
sVobject
p574
I848
sVmemorabilia
p575
I2537
sVmarin
p576
I2538
sVmario
p577
I2539
sVgravi
p578
I1346
sVregular
p579
I2540
sVmouth
p580
I136
sVaddict
p581
I137
sVletter
p582
I138
sVfluster
p583
I139
sVminti
p584
I3724
sVwatercress
p585
I2542
sVjean
p586
I3939
sVglow
p587
I3861
sVzealand
p588
I864
sVdok
p589
I2544
sVsinger
p590
I140
sVexcus
p591
I1347
sVsichuan
p592
I2378
sVslider
p593
I4789
sVunpleas
p594
I141
sVgrass
p595
I4324
sVflow
p596
I3365
sVvouch
p597
I1349
sVhospit
p598
I142
sVsoupi
p599
I3864
sVaunt
p600
I1351
sVplace
p601
I4133
sVlaid
p602
I3804
sVmushi
p603
I2547
sVpropos
p604
I3202
sVscream
p605
I143
sVcame
p606
I144
sVmarvel
p607
I145
sVbeaten
p608
I3726
sVbomb
p609
I146
sVopposit
p610
I1354
sVtequila
p611
I147
sVbutt
p612
I2868
sVsage
p613
I3867
sVtransluc
p614
I148
sVdecidedli
p615
I1355
sVprix
p616
I149
sVfennel
p617
I150
sVunorgan
p618
I151
sVradio
p619
I3868
sVsubtli
p620
I1356
sVupholst
p621
I3399
sVshelv
p622
I4791
sVking
p623
I4497
sVearth
p624
I3404
sVpitza
p625
I3309
sVaustralian
p626
I4081
sVmellow
p627
I4412
sVtoast
p628
I1358
sVdespit
p629
I2552
sVock
p630
I3871
sVnobodi
p631
I3532
sVlayout
p632
I153
sVshellfish
p633
I3872
sVfacil
p634
I3524
sVquaint
p635
I942
sVmenu
p636
I154
sVexplain
p637
I2553
sVrestaur
p638
I155
sVawsom
p639
I3874
sVsugar
p640
I2554
sVnews
p641
I3899
sVtheme
p642
I156
sVbusi
p643
I157
sVbliss
p644
I158
sVrich
p645
I159
sVtropic
p646
I3876
sVcodfish
p647
I957
sVplate
p648
I161
sVcappuccino
p649
I1360
sVdj
p650
I1361
sVdi
p651
I1362
sVseclud
p652
I162
sVambianc
p653
I163
sVnasti
p654
I1363
sVde
p655
I1364
sVstop
p656
I2556
sVweari
p657
I2578
sVflauta
p658
I1365
sVpocket
p659
I165
sVwatermelon
p660
I2559
sVbaroqu
p661
I4613
sVcushion
p662
I166
sVreport
p663
I3879
sVdu
p664
I1366
sVrelish
p665
I992
sVnamesak
p666
I168
sVsaus
p667
I169
sVhall
p668
I4907
sVearn
p669
I999
sVsoftli
p670
I1000
sVbar
p671
I2562
sVstunningli
p672
I170
sVsaut
p673
I171
sVpretzel
p674
I172
sVdisco
p675
I1008
sVsauc
p676
I173
sVbag
p677
I2564
sVbad
p678
I2565
sVcoke
p679
I3675
sVburgundi
p680
I3883
sVcozier
p681
I3884
sVban
p682
I2566
sVbao
p683
I2567
sVsteak
p684
I1368
sVsteal
p685
I1369
sVsteam
p686
I1370
sVbleu
p687
I174
sVfragrant
p688
I3885
sVblew
p689
I175
sVjulien
p690
I2569
sVfair
p691
I176
sVmed
p692
I2407
sVliquor
p693
I3529
sVkielbasa
p694
I4636
sVsturgeon
p695
I2570
sVresist
p696
I3888
sVpinot
p697
I177
sVimho
p698
I1050
sVrespons
p699
I179
sVfail
p700
I180
sVoppos
p701
I2859
sVfluffi
p702
I2571
sVcharact
p703
I3534
sVbest
p704
I181
sVpeanut
p705
I3382
sVpastel
p706
I1372
sVbarbequ
p707
I4971
sVsaid
p708
I2572
sVonto
p709
I3815
sVaway
p710
I1373
sVsail
p711
I2573
sVgentleman
p712
I1374
sVlotu
p713
I1072
sVskimpi
p714
I184
sVfigur
p715
I1077
sVscore
p716
I185
sVoutstand
p717
I3891
sVfinger
p718
I3892
sVvariat
p719
I3100
sVyogurt
p720
I186
sVdrawn
p721
I1376
sVapproach
p722
I3893
sVnture
p723
I187
sVgruyer
p724
I2574
sVattribut
p725
I2575
sVinabl
p726
I189
sVaccord
p727
I1377
sVnever
p728
I2409
sVextend
p729
I191
sVsmoothli
p730
I4922
sVwo
p731
I1378
sVlodg
p732
I3728
sVuninspir
p733
I1379
sVboss
p734
I3896
sVextens
p735
I192
sVlazi
p736
I1103
sVcut
p737
I3311
sVwear
p738
I3592
sVmedallion
p739
I1108
sVtgi
p740
I4568
sVtoler
p741
I194
sVadvertis
p742
I195
sVroller
p743
I196
sVkitchen
p744
I1381
sVcop
p745
I1382
sVaccident
p746
I197
sVcou
p747
I1383
sVexpos
p748
I2229
sVcow
p749
I1384
sVmarnier
p750
I3729
sVconch
p751
I2579
sVfault
p752
I3902
sVhowev
p753
I1385
sVmariachi
p754
I1386
sVbleecker
p755
I2580
sVpiti
p756
I198
sVcob
p757
I1388
sVcod
p758
I1389
sVlinguin
p759
I1390
sVpita
p760
I199
sVcountri
p761
I200
sVplanet
p762
I3358
sVfreshest
p763
I1391
sVjelli
p764
I3903
sVgamey
p765
I3904
sVcon
p766
I1392
sVsuggest
p767
I3929
sVskill
p768
I2311
sVassur
p769
I201
sVtough
p770
I1393
sVtoni
p771
I1394
sVroyal
p772
I2637
sVdelic
p773
I1666
sVheight
p774
I2582
sVguin
p775
I1395
sVbroth
p776
I3926
sVdens
p777
I4810
sVlyonnais
p778
I3731
sVdougla
p779
I3906
sVparadis
p780
I1396
sVgnocci
p781
I3570
sVguid
p782
I1397
sVassum
p783
I203
sVether
p784
I2585
sVspeak
p785
I1398
sVwedg
p786
I1642
sVaccustom
p787
I2587
sVbathroom
p788
I3908
sVcardboard
p789
I2412
sVangel
p790
I1667
sVbeef
p791
I3909
sVnonsens
p792
I3910
sVunion
p793
I204
sVfri
p794
I205
sVgrotto
p795
I1668
sVfro
p796
I206
sVparsley
p797
I1172
sVmozzarella
p798
I3733
sVting
p799
I1175
sVbeer
p800
I3912
sVmuch
p801
I207
sVbeet
p802
I3914
sVgyoza
p803
I208
sVinterest
p804
I2591
sVsaute
p805
I1669
sVfrise
p806
I1181
sVwarmth
p807
I1399
sVhesit
p808
I210
sVthrew
p809
I2595
sVlife
p810
I212
sVvotiv
p811
I1879
sVrecomend
p812
I213
sVmushroom
p813
I2596
sVeastern
p814
I214
sVdismiss
p815
I4396
sVworker
p816
I215
sVuncommon
p817
I3918
sVwish
p818
I3680
sVdave
p819
I216
sVconsomm
p820
I2415
sVchile
p821
I217
sVchild
p822
I218
sVcatch
p823
I3921
sVchili
p824
I219
sVspin
p825
I220
sVtacki
p826
I3973
sVmeyer
p827
I3965
sVchill
p828
I221
sVflorentin
p829
I2597
sVugli
p830
I2598
sVident
p831
I1404
sVtank
p832
I1207
sVquantiti
p833
I4178
sVtang
p834
I2599
sVplasma
p835
I1437
sVservic
p836
I2600
sVpungent
p837
I1405
sVcommerci
p838
I222
sVair
p839
I1406
sVemploy
p840
I223
sVnear
p841
I2601
sVgritti
p842
I224
sVneat
p843
I2602
sVoccas
p844
I2603
sVvagu
p845
I1408
sVgalor
p846
I2416
sVrent
p847
I4168
sVseven
p848
I2604
sVdizzi
p849
I1410
sVboweri
p850
I3784
sVmexico
p851
I2605
sVchallah
p852
I1236
sVsushi
p853
I2607
sVundercook
p854
I3578
sVplayer
p855
I225
sVcant
p856
I2610
sVtrueli
p857
I3317
sVim
p858
I1248
sVcone
p859
I1412
sVexterior
p860
I3927
sVin
p861
I2613
sVcarmin
p862
I2614
sVunprofession
p863
I3997
sVdoorman
p864
I1255
sVie
p865
I2615
sVid
p866
I2616
sVdisappear
p867
I1257
sVhone
p868
I226
sVprecis
p869
I3736
sVhong
p870
I227
sVharmoni
p871
I1269
sVrockwel
p872
I1834
sVincorrectli
p873
I1413
sVportobello
p874
I229
sVslab
p875
I1674
sVmake
p876
I2622
sVwound
p877
I3930
sVbella
p878
I2623
sVdazzl
p879
I1007
sVwriter
p880
I4699
sVdrawback
p881
I3785
sVsplit
p882
I231
sVjungl
p883
I232
sVcostum
p884
I1299
sVjerri
p885
I1416
sVeuropean
p886
I233
sVwheel
p887
I1417
sVnin
p888
I1418
sVfuss
p889
I1419
sVevid
p890
I1420
sVsconc
p891
I4798
sVpick
p892
I3934
sVhang
p893
I1421
sVrain
p894
I1422
sVhand
p895
I1423
sVdelight
p896
I2624
sVfairli
p897
I234
sVfuse
p898
I1424
sVgarlic
p899
I2625
sVrefil
p900
I235
sVrefin
p901
I236
sVtuna
p902
I237
sVovers
p903
I2627
sVoverr
p904
I1325
sVtune
p905
I238
sVkid
p906
I2629
sVnibbl
p907
I239
sVcampi
p908
I1425
sVvermont
p909
I1426
sVhearti
p910
I3838
sVkept
p911
I1427
sVadvic
p912
I2879
sVbewar
p913
I241
sVdent
p914
I4811
sVincorpor
p915
I3773
sVthu
p916
I1428
sVmin
p917
I3537
sVdrip
p918
I1429
sVdeal
p919
I2651
sVaisl
p920
I3848
sVudon
p921
I1430
sVcontact
p922
I1166
sVtuscani
p923
I3936
sVgreatest
p924
I3937
sVmother
p925
I3938
sVeveryth
p926
I3860
sVchandeli
p927
I3940
sVrout
p928
I4802
sVleft
p929
I2633
sVidentifi
p930
I1357
sVkale
p931
I1432
sVbargain
p932
I3996
sVphoto
p933
I1433
sVlaptop
p934
I3941
sVmid
p935
I3539
sVseen
p936
I2531
sVobserv
p937
I4886
sVanglo
p938
I4803
sVhuman
p939
I2634
sVgrimaldi
p940
I1371
sVdramat
p941
I4197
sVyet
p942
I2635
sVlanguag
p943
I2636
sVprevious
p944
I244
sVsatiat
p945
I4804
sVham
p946
I245
sVeasi
p947
I246
sVmix
p948
I3541
sVcrow
p949
I3400
sVsouffl
p950
I1849
sVhelp
p951
I1878
sVmask
p952
I3944
sVreservationist
p953
I247
sVshout
p954
I1435
sVspread
p955
I3913
sVboard
p956
I1436
sVendur
p957
I1400
sVenchilada
p958
I1401
sVtow
p959
I3826
sVeast
p960
I248
sVhat
p961
I249
sVsquab
p962
I2880
sVopt
p963
I2640
sVdreami
p964
I2641
sVmayb
p965
I1438
sVpreserv
p966
I250
sVmayo
p967
I1439
sVcredit
p968
I2418
sVtwinkl
p969
I251
sVfusion
p970
I1440
sVleagu
p971
I1441
sVbackground
p972
I2645
sVelabor
p973
I2646
sVchipotl
p974
I1434
sVburnt
p975
I3949
sVbefit
p976
I3950
sVretreat
p977
I1442
sVapart
p978
I3951
sVshoulder
p979
I2648
sVmeasur
p980
I252
sVgift
p981
I3953
sVspecif
p982
I253
sVcooler
p983
I1443
sVshade
p984
I4434
sVcool
p985
I4039
sVstroller
p986
I254
sVdarn
p987
I3307
sVdivers
p988
I4805
sVremind
p989
I255
sVhunk
p990
I3955
sVconfid
p991
I2450
sVbobbi
p992
I256
sVhung
p993
I3956
sVanybodi
p994
I4611
sVunagi
p995
I2233
sVunnecessari
p996
I2649
sVright
p997
I257
sVold
p998
I258
sVcrowd
p999
I259
sVcuisin
p1000
I3957
sVstaff
p1001
I3560
sVflatter
p1002
I1446
sVmysteri
p1003
I3165
sVcrown
p1004
I260
sVtextur
p1005
I2234
sVdead
p1006
I2654
sVgorgeou
p1007
I4463
sVrevel
p1008
I2655
sVintern
p1009
I2656
sVsure
p1010
I4173
sVusher
p1011
I3958
sVideal
p1012
I4170
sVpain
p1013
I2885
sVbore
p1014
I1447
sVproudli
p1015
I4420
sVelderli
p1016
I2657
sVorchid
p1017
I1448
sVsprawl
p1018
I2658
sVhumor
p1019
I1449
sVokra
p1020
I261
sVbottom
p1021
I263
sVear
p1022
I4821
sVbett
p1023
I3208
sVmarsala
p1024
I3671
sVice
p1025
I3959
sVmemor
p1026
I3109
sVflounder
p1027
I2659
sVsubdu
p1028
I2660
sVequal
p1029
I3587
sVskylight
p1030
I3960
sVcondit
p1031
I1509
sVovercook
p1032
I2661
sVfoo
p1033
I264
sVfoi
p1034
I265
sVpeek
p1035
I1450
sVshaker
p1036
I266
sVsensibl
p1037
I267
sVtartar
p1038
I2663
sVbold
p1039
I2664
sVpeel
p1040
I1452
sVtribeca
p1041
I4883
sVtour
p1042
I2941
sVcorn
p1043
I3963
sVnight
p1044
I1444
sVburi
p1045
I2666
sVcaricatur
p1046
I268
sVcork
p1047
I3964
sVple
p1048
I4061
sVcolleg
p1049
I269
sVunreason
p1050
I1540
sVadmittedli
p1051
I4623
sVpeer
p1052
I1453
sVpost
p1053
I1454
sVsuper
p1054
I2668
sVdescrib
p1055
I3742
sVchilean
p1056
I2669
sVtandoori
p1057
I4511
sVcoast
p1058
I2557
sVdiner
p1059
I1455
sVfilipino
p1060
I270
sVcowboy
p1061
I3966
sVboister
p1062
I1456
sVplum
p1063
I3967
sVslightli
p1064
I271
sVsurround
p1065
I3969
sVunfortun
p1066
I3970
sVsuba
p1067
I2675
sVbrusqu
p1068
I1657
sVdinner
p1069
I3972
sVafternoon
p1070
I2670
sVcoars
p1071
I272
sVcommit
p1072
I2671
sVtoston
p1073
I3974
sVproduc
p1074
I3975
sVchampagn
p1075
I2890
sVflatbread
p1076
I273
sVduke
p1077
I3976
sVtastier
p1078
I2672
sVcivil
p1079
I3977
sVcuriou
p1080
I1457
sVbounc
p1081
I1458
sVfloat
p1082
I1459
sVprofession
p1083
I1460
sVbound
p1084
I1461
sVsoo
p1085
I274
sVson
p1086
I275
sVdown
p1087
I2674
sVcreativ
p1088
I276
sVloin
p1089
I1462
sVsor
p1090
I277
sVsou
p1091
I278
sVformerli
p1092
I2189
sVkuruma
p1093
I1615
sVsoy
p1094
I279
sVopportun
p1095
I1463
sVcafeteria
p1096
I3981
sVmicrowav
p1097
I2677
sVwan
p1098
I1464
sVaccordingli
p1099
I1465
sVamerica
p1100
I1682
sVfabric
p1101
I281
sVsuffici
p1102
I282
sVquirki
p1103
I1467
sVsupport
p1104
I283
sVfrill
p1105
I1468
sVtransform
p1106
I3983
sVnova
p1107
I284
sVhappi
p1108
I285
sVavail
p1109
I286
sVvirgin
p1110
I1923
sVquiet
p1111
I4212
sVway
p1112
I1470
sVacknowledg
p1113
I287
sVpipe
p1114
I4812
sVmusic
p1115
I35
sVconstantli
p1116
I289
sVwar
p1117
I1472
sVabil
p1118
I4351
sVfork
p1119
I2681
sVhead
p1120
I3986
sVcreation
p1121
I2036
sVamateur
p1122
I3988
sVform
p1123
I2682
sVoffer
p1124
I290
sVforc
p1125
I2683
sVdeaf
p1126
I2652
sVspirit
p1127
I4230
sVspike
p1128
I3745
sVsomehow
p1129
I2653
sVcottag
p1130
I1235
sVheat
p1131
I3989
sVurg
p1132
I3990
sVhear
p1133
I3991
sVrefriger
p1134
I3993
sVsundri
p1135
I1473
sVtrue
p1136
I1474
sVfort
p1137
I2686
sVkitschi
p1138
I3994
sVabsent
p1139
I1475
sVflavour
p1140
I3995
sVinquir
p1141
I1476
sVrattl
p1142
I4778
sVutensil
p1143
I4769
sVdaddi
p1144
I2688
sVmaximum
p1145
I1477
sVpaprika
p1146
I291
sVcrystal
p1147
I1479
sVnicest
p1148
I292
sVpalm
p1149
I293
sVlantern
p1150
I2643
sVretir
p1151
I1480
sVmesclun
p1152
I1481
sVadorn
p1153
I3999
sVtrim
p1154
I4000
sVtrio
p1155
I4001
sVfeatur
p1156
I2690
sValongsid
p1157
I1482
sVclassic
p1158
I2691
sVperuvian
p1159
I4002
sVpetit
p1160
I1724
sVabstract
p1161
I1484
sVconsciou
p1162
I4626
sVstore
p1163
I4493
sVromant
p1164
I2845
sVsale
p1165
I2693
sVbrightli
p1166
I4003
sVcandlelit
p1167
I4236
sVexist
p1168
I294
sVglanc
p1169
I2694
sVrequest
p1170
I3551
sVdesir
p1171
I3116
sVship
p1172
I2695
sVtooth
p1173
I1684
sVmold
p1174
I1485
sVmole
p1175
I1486
sVsticki
p1176
I2696
sVassembl
p1177
I4007
sVtab
p1178
I3450
sVnj
p1179
I4008
sVsurpris
p1180
I4627
sVfloor
p1181
I295
sVcolder
p1182
I4456
sVna
p1183
I4261
sVhigher
p1184
I4603
sVexcel
p1185
I2697
sVrotisseri
p1186
I1487
sVactor
p1187
I296
sVtil
p1188
I4011
sVtim
p1189
I822
sVdimli
p1190
I1488
sVshrine
p1191
I1489
sVtest
p1192
I1490
sVtie
p1193
I4014
sVappetit
p1194
I4015
sVsmell
p1195
I298
sVroll
p1196
I299
sVrealiti
p1197
I1491
sVmatur
p1198
I2701
sVhurri
p1199
I1858
sVintend
p1200
I300
sVdevot
p1201
I301
sVfelt
p1202
I2702
sVhormon
p1203
I4019
sVdiet
p1204
I2703
sVgreeneri
p1205
I302
sVintens
p1206
I303
sVintent
p1207
I1031
sVreign
p1208
I1239
sVconsid
p1209
I4020
sVweekend
p1210
I2705
sVbordeaux
p1211
I4022
sVfemal
p1212
I1804
sVreceiv
p1213
I2621
sVlonger
p1214
I4024
sVfurthermor
p1215
I2706
sVpotato
p1216
I2707
sVhome
p1217
I2332
sVsteadi
p1218
I1687
sVintimaci
p1219
I4025
sVpseudo
p1220
I2708
sVflag
p1221
I4409
sVcouli
p1222
I1493
sVseitan
p1223
I1494
sVloyal
p1224
I1495
sVvietnam
p1225
I4026
sVignor
p1226
I2710
sVjostl
p1227
I3709
sVtime
p1228
I305
sVpush
p1229
I306
sVpecan
p1230
I2434
sVdaili
p1231
I2712
sVfusilli
p1232
I308
sVslope
p1233
I4182
sVconcept
p1234
I1496
sVboomer
p1235
I3749
sVchain
p1236
I309
sVwhoever
p1237
I310
sVreverber
p1238
I311
sVrob
p1239
I4028
sVcelebr
p1240
I4029
sVroe
p1241
I4030
sVinvent
p1242
I2714
sVtatami
p1243
I1497
sVknown
p1244
I4411
sVmild
p1245
I2715
sVskate
p1246
I312
sVmarion
p1247
I3928
sVskin
p1248
I2717
sVgumbo
p1249
I3040
sVchair
p1250
I313
sVbenihana
p1251
I1499
sVdiscern
p1252
I1783
sVdecid
p1253
I1840
sVuneven
p1254
I468
sVgrape
p1255
I1501
sVlemonad
p1256
I2721
sVzone
p1257
I1502
sVflash
p1258
I1503
sVfather
p1259
I2722
sVbusboy
p1260
I4398
sVveg
p1261
I315
sVcertainli
p1262
I1504
sVoz
p1263
I4307
sVyummi
p1264
I2723
sVdecis
p1265
I316
sVeditori
p1266
I2725
sVmelon
p1267
I4034
sVsouthwest
p1268
I1505
sVbrown
p1269
I1506
sVsourc
p1270
I4035
sVstring
p1271
I2726
sVjerk
p1272
I317
sVgrill
p1273
I1863
sVcheap
p1274
I4185
sVlater
p1275
I4177
sVvegan
p1276
I1507
sVanyway
p1277
I2250
sVplantain
p1278
I3961
sVcook
p1279
I4038
sVma
p1280
I2727
sVblast
p1281
I1510
sVexact
p1282
I318
sVseemingli
p1283
I1511
sVmargarita
p1284
I1512
sVdim
p1285
I2728
sVgua
p1286
I1513
sVmahi
p1287
I319
sVwent
p1288
I2479
sVspun
p1289
I4827
sVlevel
p1290
I4040
sVtear
p1291
I320
sVdie
p1292
I2730
sVleftov
p1293
I321
sVdig
p1294
I2731
sVpecorino
p1295
I4042
sVp
I1515
sVsoooo
p1296
I1516
sVharicot
p1297
I4043
sVsweet
p1298
I4563
sVsubway
p1299
I323
sVteam
p1300
I324
sVcooki
p1301
I325
sVskewer
p1302
I326
sVguy
p1303
I1517
sVbrownston
p1304
I1518
sVwoven
p1305
I1519
sVelegantli
p1306
I1242
sVshave
p1307
I2735
sVupper
p1308
I1520
sVpork
p1309
I4046
sVslower
p1310
I4047
sVregret
p1311
I1521
sVtrend
p1312
I4048
sVsigh
p1313
I327
sVsouthwestern
p1314
I4186
sVcompens
p1315
I328
sVplu
p1316
I1451
sVcosi
p1317
I1522
sVsign
p1318
I329
sVeverytim
p1319
I1523
sVcost
p1320
I1524
sVroof
p1321
I2437
sVutter
p1322
I4818
sVpatient
p1323
I3336
sVbake
p1324
I4050
sVport
p1325
I4051
sVgnocchi
p1326
I2736
sVappear
p1327
I1527
sVoutpost
p1328
I4649
sVrepli
p1329
I4053
sVrum
p1330
I2046
sVremain
p1331
I3127
sVmelt
p1332
I330
sVuniform
p1333
I1528
sVcurrent
p1334
I331
sVabsolut
p1335
I3870
sVportugues
p1336
I4417
sVsuspect
p1337
I2739
sVgoer
p1338
I4054
sVindiffer
p1339
I1529
sVappeal
p1340
I1530
sVboost
p1341
I332
sVsouk
p1342
I2774
sVmeld
p1343
I333
sVmp
p1344
I3754
sVraspberri
p1345
I2049
sVbalconi
p1346
I4878
sVasparagu
p1347
I2528
sVgener
p1348
I1531
sVv
I4418
sVrubberi
p1349
I1532
sVfrench
p1350
I2740
sVsatisfi
p1351
I1533
sVfluke
p1352
I4057
sVsnack
p1353
I1692
sVflat
p1354
I4406
sVguilti
p1355
I4066
sVgriddl
p1356
I1534
sVaddress
p1357
I334
sVlocat
p1358
I4822
sValong
p1359
I335
sVimmacul
p1360
I2775
sVarch
p1361
I2861
sVwait
p1362
I2742
sVbox
p1363
I2743
sVbuck
p1364
I1536
sVinsan
p1365
I2745
sVbuco
p1366
I1537
sVboast
p1367
I4060
sVinvit
p1368
I2746
sVbrilliant
p1369
I336
sVshift
p1370
I2747
sVstrudel
p1371
I2748
sVbok
p1372
I2749
sVbehav
p1373
I3777
sVbon
p1374
I2750
sVdusti
p1375
I337
sVvinaigrett
p1376
I1538
sVweird
p1377
I4065
sVprovenc
p1378
I338
sVpillow
p1379
I1539
sVanis
p1380
I2471
sVpromot
p1381
I2667
sVorient
p1382
I3172
sVceram
p1383
I2753
sVhousemad
p1384
I339
sVwaitor
p1385
I3747
sVlove
p1386
I340
sVkebab
p1387
I2754
sVextra
p1388
I1543
sVradish
p1389
I341
sVburg
p1390
I2662
sVprefer
p1391
I342
sVstingi
p1392
I1544
sVforev
p1393
I2254
sVmeantim
p1394
I4631
sVleav
p1395
I4928
sVfake
p1396
I343
sVsalti
p1397
I4072
sVgourmet
p1398
I4485
sVsmallish
p1399
I4073
sVmarket
p1400
I1545
sVbloodi
p1401
I344
sVangelo
p1402
I1546
sVcreami
p1403
I2757
sVsaki
p1404
I2758
sVperf
p1405
I2759
sVfrothi
p1406
I4076
sVprove
p1407
I1547
sVsake
p1408
I2760
sVwicker
p1409
I345
sVperi
p1410
I2761
sVgive
p1411
I2442
sVvisit
p1412
I2763
sVsuppl
p1413
I4078
sVsaketini
p1414
I2764
sVeverybodi
p1415
I2765
sVlive
p1416
I1548
sVwood
p1417
I4189
sVloung
p1418
I4079
sVeverywher
p1419
I3453
sVincreas
p1420
I3571
sVangri
p1421
I347
sVthru
p1422
I2766
sVscampi
p1423
I3508
sVtightli
p1424
I349
sVcapit
p1425
I4084
sVbellini
p1426
I1549
sVafford
p1427
I350
sVpeopl
p1428
I351
sVappet
p1429
I2767
sVenhanc
p1430
I352
sVdowntown
p1431
I2768
sVvisual
p1432
I353
sVdrown
p1433
I4085
sVsparerib
p1434
I354
sVtapestri
p1435
I243
sVventur
p1436
I4086
sVoverbook
p1437
I2023
sVclaud
p1438
I355
sVsummertim
p1439
I4190
sVooz
p1440
I2771
sVighli
p1441
I4087
sVtokyo
p1442
I2773
sVcar
p1443
I1553
sVprepar
p1444
I1554
sVpretend
p1445
I357
sVjudg
p1446
I4088
sVfocu
p1447
I1556
sVcat
p1448
I3878
sVdecker
p1449
I1557
sVwallet
p1450
I2110
sVvega
p1451
I358
sVwhatev
p1452
I359
sVconnoisseur
p1453
I3734
sVcal
p1454
I1559
sVcab
p1455
I1560
sVcitru
p1456
I2780
sVplump
p1457
I2912
sVpretens
p1458
I360
sVcaf
p1459
I1561
sVslightest
p1460
I4090
sVheart
p1461
I1562
sVchix
p1462
I1563
sVcomplimentari
p1463
I4633
sVfavourit
p1464
I2782
sVfabul
p1465
I2783
sVstream
p1466
I4092
sVconcoct
p1467
I4074
sVpredict
p1468
I2784
sVcurri
p1469
I3968
sVchip
p1470
I1564
sVheard
p1471
I1565
sVcrazi
p1472
I2785
sVchin
p1473
I1566
sVpond
p1474
I4421
sVchic
p1475
I1567
sVoccur
p1476
I1568
sVtreasur
p1477
I4874
sVnearli
p1478
I2913
sVpurs
p1479
I2154
sVdifferenti
p1480
I4094
sVjoy
p1481
I4850
sVmultipl
p1482
I1569
sVwinter
p1483
I361
sVfestiv
p1484
I3971
sVsavor
p1485
I362
sVcuba
p1486
I4830
sVping
p1487
I2788
sVfreezer
p1488
I1570
sVnyu
p1489
I2790
sVwrite
p1490
I1571
sVruder
p1491
I364
sVsunday
p1492
I2792
sVflank
p1493
I1572
sVanyon
p1494
I4096
sVpure
p1495
I2793
sVtile
p1496
I2794
sVnyc
p1497
I2795
sVloungi
p1498
I1573
sVpint
p1499
I2796
sVmap
p1500
I2797
sVproduct
p1501
I1574
sVmar
p1502
I2798
sVdin
p1503
I2729
sVcocktail
p1504
I4099
sVmay
p1505
I2799
sVmax
p1506
I2800
sVdive
p1507
I1575
sVsour
p1508
I2779
sVspot
p1509
I365
sVlouder
p1510
I4628
sVintrus
p1511
I2190
sVmac
p1512
I2801
sVbirthday
p1513
I4100
sVark
p1514
I4542
sVmad
p1515
I2802
sVbrioch
p1516
I367
sVdate
p1517
I368
sVsuck
p1518
I369
sVnobl
p1519
I4192
sVgrow
p1520
I2804
sVmao
p1521
I2805
sVharmon
p1522
I370
sVstress
p1523
I371
sVcrepe
p1524
I1577
sVneck
p1525
I2215
sVliquid
p1526
I4103
sVbrussel
p1527
I1578
sVtip
p1528
I4009
sVsq
p1529
I372
sVsp
p1530
I373
sVfavorit
p1531
I1579
sVavenu
p1532
I2806
sVst
p1533
I374
sVinform
p1534
I4106
sVsi
p1535
I376
sVmango
p1536
I377
sVcombin
p1537
I4107
sVchurrasco
p1538
I1581
sVned
p1539
I2402
sVoffend
p1540
I1582
sVtall
p1541
I2810
sVsa
p1542
I378
sVemerg
p1543
I4980
sVordinari
p1544
I1256
sVse
p1545
I379
sVdrunken
p1546
I380
sVcute
p1547
I2812
sVlighter
p1548
I4194
sVanticip
p1549
I4109
sVwerent
p1550
I2258
sVbrais
p1551
I1584
sVblare
p1552
I4111
sVkong
p1553
I382
sVbastilla
p1554
I2917
sVchickpea
p1555
I2813
sVoili
p1556
I3430
sVdivid
p1557
I4424
sVshake
p1558
I2814
sVsmelli
p1559
I2059
sVcold
p1560
I1585
sVstill
p1561
I1586
sVaw
p1562
I3608
sVcola
p1563
I1587
sVsprinkl
p1564
I1588
sVswank
p1565
I4113
sVrooftop
p1566
I1589
sVthumb
p1567
I383
sVpolici
p1568
I2818
sVtoro
p1569
I384
sVtorn
p1570
I2282
sVinstantli
p1571
I385
sVtort
p1572
I386
sVwindow
p1573
I1590
sVartisan
p1574
I1591
sVthump
p1575
I387
sVparmesan
p1576
I4352
sVent
p1577
I3763
sVmediocr
p1578
I1592
sVpalpabl
p1579
I388
sVyama
p1580
I1593
sVsate
p1581
I2446
sVnouveau
p1582
I2920
sVnon
p1583
I1594
sVevok
p1584
I1595
sVrecal
p1585
I1596
sVgray
p1586
I2260
sVcontriv
p1587
I2673
sVserendip
p1588
I1597
sVkiller
p1589
I2820
sVovercrowd
p1590
I1598
sVexot
p1591
I390
sVnation
p1592
I391
sVunderneath
p1593
I4116
sVmodestli
p1594
I392
sVcabinet
p1595
I4321
sVaesthet
p1596
I1600
sVshadow
p1597
I3018
sVhalf
p1598
I1601
sVsugari
p1599
I4957
sVmolass
p1600
I4117
sVraku
p1601
I193
sVketchup
p1602
I393
sVintroduct
p1603
I1604
sVwont
p1604
I4909
sVbayard
p1605
I4204
sVterm
p1606
I4119
sVsizzl
p1607
I2824
sVrelleno
p1608
I1605
sVsop
p1609
I1606
sVmeatbal
p1610
I4795
sVstir
p1611
I3142
sVreek
p1612
I2903
sVdrop
p1613
I1607
sVoliv
p1614
I2825
sVgave
p1615
I3948
sVgoat
p1616
I4427
sVsepar
p1617
I394
sVcassoulet
p1618
I2921
sVmagazin
p1619
I1609
sVpeasant
p1620
I2826
sVrock
p1621
I2827
sVthur
p1622
I4889
sVjanuari
p1623
I1610
sVpizza
p1624
I1260
sVem
p1625
I1611
sVel
p1626
I1612
sVen
p1627
I1613
sVlatin
p1628
I4552
sVed
p1629
I1614
sVindividu
p1630
I4123
sVreceipt
p1631
I396
sVyeah
p1632
I1616
sVlechon
p1633
I2923
sVwrap
p1634
I1617
sVsandwich
p1635
I4428
sVex
p1636
I1618
sVyear
p1637
I1619
sValoof
p1638
I2830
sVet
p1639
I1620
sVhappen
p1640
I1621
sVmoder
p1641
I4255
sVneighbourhood
p1642
I398
sVer
p1643
I1623
sVsatisfyingli
p1644
I4125
sVshown
p1645
I1624
sVjackson
p1646
I2833
sVshowi
p1647
I1625
sVspace
p1648
I1626
sVblt
p1649
I399
sVshiitak
p1650
I400
sVinquiri
p1651
I4624
sVclueless
p1652
I2996
sVtagliatel
p1653
I2834
sVlinguini
p1654
I401
sVstool
p1655
I3865
sVcobb
p1656
I402
sVinternet
p1657
I403
sVuncl
p1658
I8
sVformula
p1659
I404
sVironi
p1660
I1628
sVmonkfish
p1661
I1629
sVbla
p1662
I405
sVcorrect
p1663
I2838
sVromanc
p1664
I2839
sVunfriendli
p1665
I4126
sVmonster
p1666
I2841
sVunderwhelm
p1667
I730
sVcupcak
p1668
I406
sVmillion
p1669
I407
sVcarv
p1670
I1630
sVargu
p1671
I1631
sVcart
p1672
I1632
sVaioli
p1673
I2842
sVtamal
p1674
I4949
sVcarn
p1675
I1633
sVvinyl
p1676
I2844
sVplea
p1677
I408
sVgrandma
p1678
I409
sVcarb
p1679
I33
sVhefti
p1680
I2846
sVpassionfruit
p1681
I2847
sVoverpr
p1682
I4836
sVcard
p1683
I1635
sVcare
p1684
I1636
sVreflect
p1685
I4430
sVfunki
p1686
I2848
sVdepartur
p1687
I410
sVquestion
p1688
I2857
sVwaiter
p1689
I2849
sVmodest
p1690
I411
sVbritish
p1691
I1637
sVhonest
p1692
I1638
sVcharcuteri
p1693
I1639
sVthing
p1694
I2850
sVlie
p1695
I3498
sVmesh
p1696
I3767
sVyum
p1697
I59
sVaboard
p1698
I412
sVswing
p1699
I60
sVstandbi
p1700
I2852
sVturf
p1701
I4134
sVrefug
p1702
I63
sValcov
p1703
I413
sVneglect
p1704
I414
sVfrequent
p1705
I2854
sVfirst
p1706
I2855
sVoper
p1707
I415
sVclumsi
p1708
I4137
sVsuspend
p1709
I4138
sVwineturtl
p1710
I4139
sVdirectli
p1711
I1641
sVspoken
p1712
I416
sVcheesesteak
p1713
I2066
sVplaintain
p1714
I4165
sVcheesi
p1715
I2468
sVone
p1716
I417
sVmignon
p1717
I418
sVlong
p1718
I2202
sVrink
p1719
I1643
sVspanish
p1720
I419
sVvote
p1721
I420
sVpicnic
p1722
I4199
sVring
p1723
I1644
sVfight
p1724
I1469
sVopen
p1725
I2491
sVrome
p1726
I2632
sVaudac
p1727
I422
sVkink
p1728
I4504
sVsheer
p1729
I1647
sVsheet
p1730
I1648
sVchristma
p1731
I102
sVconvent
p1732
I423
sVimit
p1733
I2678
sVhummu
p1734
I1649
sVbite
p1735
I424
sVflatiron
p1736
I2862
sVfierc
p1737
I2863
sVeachoth
p1738
I1651
sVplastic
p1739
I4147
sVciti
p1740
I425
sVchecker
p1741
I1652
sVnecessarili
p1742
I114
sVdraft
p1743
I426
sVbreez
p1744
I1654
sVcircl
p1745
I120
sVectli
p1746
I2865
sVmasala
p1747
I4149
sVwhite
p1748
I4150
sVcirca
p1749
I125
sVcite
p1750
I428
sVfriend
p1751
I1656
sVinclud
p1752
I3352
sVrecess
p1753
I3555
sVfeijoada
p1754
I2866
sVfraction
p1755
I2679
sVespeci
p1756
I133
sVhum
p1757
I134
sVpublic
p1758
I3099
sVwax
p1759
I1471
sVvermicelli
p1760
I1659
sVartifact
p1761
I429
sVsnatch
p1762
I430
sVhut
p1763
I4155
sVremark
p1764
I3415
sVretro
p1765
I4629
sVenclos
p1766
I4156
sVmostli
p1767
I1660
sVamazingli
p1768
I2680
sVpierogi
p1769
I4157
sVpomm
p1770
I1661
sVthai
p1771
I1662
sVkabob
p1772
I1663
sVboyfriend
p1773
I431
sVthirti
p1774
I4063
sVwide
p1775
I4159
sViceberg
p1776
I432
sVbatali
p1777
I4104
sVrival
p1778
I433
sVatmospher
p1779
I4508
sVneedless
p1780
I4455
sVfruiti
p1781
I1665
sVmidtown
p1782
I2870
sVr
I4160
sVbalanc
p1783
I4161
sVamid
p1784
I2871
sVposit
p1785
I4162
sVtag
p1786
I4945
sVcrackl
p1787
I2872
sVseri
p1788
I4163
sVpre
p1789
I4164
sVmountain
p1790
I3203
sVsai
p1791
I434
sVlick
p1792
I2874
sVpra
p1793
I202
sVsan
p1794
I435
sVsam
p1795
I436
sVsal
p1796
I437
sVslaw
p1797
I209
sVpro
p1798
I4166
sVanywher
p1799
I1670
sValley
p1800
I438
sVsad
p1801
I439
sVbalsam
p1802
I440
sVamiabl
p1803
I4757
sVsay
p1804
I441
sVslam
p1805
I1671
sVceil
p1806
I164
sVwint
p1807
I442
sVdeliv
p1808
I1672
sVportrait
p1809
I2877
sVallen
p1810
I443
sVbreakfast
p1811
I1673
sVborough
p1812
I444
sVsaw
p1813
I445
sVappolog
p1814
I446
sVsat
p1815
I447
sVfishi
p1816
I2068
sVfettucin
p1817
I1675
sVcoal
p1818
I3150
sVnote
p1819
I448
sVgotham
p1820
I995
sVjefferson
p1821
I449
sVhookah
p1822
I1676
sVtake
p1823
I450
sVadvis
p1824
I2642
sVinterior
p1825
I2881
sVdestroy
p1826
I451
sVwonder
p1827
I2882
sVnoth
p1828
I452
sVsurf
p1829
I4171
sVbegin
p1830
I1677
sVinept
p1831
I2884
sVimportantli
p1832
I1678
sVexpertli
p1833
I1679
sVnormal
p1834
I2886
sVtrack
p1835
I2887
sVprice
p1836
I1680
sVknew
p1837
I453
sVentranc
p1838
I4174
sVbuffet
p1839
I454
sVbutterfli
p1840
I455
sVplagu
p1841
I3775
sVdetect
p1842
I4202
sVperhap
p1843
I4473
sVabus
p1844
I456
sVveselka
p1845
I1681
sVpair
p1846
I2891
sVcollar
p1847
I4896
sVneatli
p1848
I280
sVcuban
p1849
I2892
sVpathet
p1850
I2893
sVcloset
p1851
I4844
sVmarinara
p1852
I2684
sVdream
p1853
I1683
sVseafood
p1854
I4176
sVnapkin
p1855
I2246
sVdrive
p1856
I457
sVwing
p1857
I67
sVmeanwhil
p1858
I1685
sVprofus
p1859
I1686
sVsunset
p1860
I2312
sVwind
p1861
I3699
sVcrank
p1862
I4648
sVsalt
p1863
I458
sVhungri
p1864
I4180
sVsicilian
p1865
I4346
sVbabbo
p1866
I4181
sVshop
p1867
I2894
sVperch
p1868
I4183
sVmadison
p1869
I459
sVshot
p1870
I2895
sVheap
p1871
I4184
sVshow
p1872
I2896
sVgerman
p1873
I1688
sVglaze
p1874
I1712
sVrendit
p1875
I1689
sVbright
p1876
I460
sVshoe
p1877
I2898
sVfaster
p1878
I4323
sVpump
p1879
I2933
sVcorner
p1880
I2899
sVsuperb
p1881
I4846
sVcalamari
p1882
I461
sVcontemporari
p1883
I2900
sVfifth
p1884
I1690
sVground
p1885
I1691
sVenthusiast
p1886
I2902
sVslow
p1887
I463
sVslop
p1888
I464
sVdice
p1889
I2904
sVstair
p1890
I1693
sVfavor
p1891
I4847
sVincongru
p1892
I2906
sVdeck
p1893
I2458
sVactiv
p1894
I465
sVjolt
p1895
I1694
sVdull
p1896
I2074
sVosso
p1897
I4188
sVcucumb
p1898
I1695
sVblack
p1899
I2909
sVsprout
p1900
I2910
sVstain
p1901
I1696
sVpumpkin
p1902
I1697
sVpastrami
p1903
I1698
sVvariou
p1904
I2914
sVget
p1905
I2915
sVporridg
p1906
I1699
sVorang
p1907
I3780
sVjazz
p1908
I4191
sVbubbl
p1909
I4356
sVsecondari
p1910
I2916
sVfestoon
p1911
I4193
sVstate
p1912
I4187
sVnobu
p1913
I381
sVprogress
p1914
I3584
sVmulino
p1915
I1700
sVgen
p1916
I2918
sVrequir
p1917
I466
sVtruli
p1918
I1702
sVprime
p1919
I467
sVreveal
p1920
I4196
sVsoho
p1921
I4179
sVswim
p1922
I3590
sVlame
p1923
I3455
sVartist
p1924
I469
sVleather
p1925
I1703
sVseldom
p1926
I1704
sVhostil
p1927
I1705
sVmalaysian
p1928
I2922
sVcumin
p1929
I397
sVyield
p1930
I2924
sVpayard
p1931
I1706
sVsum
p1932
I4383
sVtiki
p1933
I470
sVstupid
p1934
I2925
sVbison
p1935
I4198
sVthough
p1936
I3856
sVapricot
p1937
I4651
sVwarp
p1938
I2431
sVtortilla
p1939
I471
sVhusband
p1940
I1707
sVkernel
p1941
I2926
sVmess
p1942
I3764
sVoven
p1943
I3781
sVburst
p1944
I1708
sVsear
p1945
I2927
sVmarinad
p1946
I4534
sVponzu
p1947
I4782
sVseat
p1948
I2928
sVproxim
p1949
I4033
sVbuddha
p1950
I4296
sVhell
p1951
I1884
sVreserv
p1952
I3243
sVcauliflow
p1953
I2929
sVsport
p1954
I1709
sVdiver
p1955
I473
sVconcern
p1956
I1710
sVgroovi
p1957
I240
sVunmatch
p1958
I4755
sVchewi
p1959
I2930
sVtelevis
p1960
I475
sVoverdon
p1961
I476
sVinnov
p1962
I2931
sVcrawfish
p1963
I1711
sVreview
p1964
I4203
sVboy
p1965
I2744
sVubiquit
p1966
I477
sVlabel
p1967
I2932
sVorlean
p1968
I4419
sVestat
p1969
I1713
sVdigest
p1970
I3782
sVcomp
p1971
I4205
sVmandarin
p1972
I1714
sVimport
p1973
I1715
sVbarista
p1974
I4809
sVspartan
p1975
I1498
sVspars
p1976
I478
sVthirsti
p1977
I4727
sVparent
p1978
I2935
sVju
p1979
I2936
sVscreen
p1980
I479
sVsupermarket
p1981
I480
sVsmoothi
p1982
I481
sVjumbo
p1983
I3359
sVjovial
p1984
I2942
sVspare
p1985
I482
sVbroil
p1986
I1717
sVspark
p1987
I483
sVcome
p1988
I4207
sVja
p1989
I2937
sVblame
p1990
I1716
sVdrunk
p1991
I4905
sVloudli
p1992
I484
sVberri
p1993
I4208
sVmob
p1994
I4209
sVtuck
p1995
I2938
sVmono
p1996
I1718
sVregion
p1997
I4211
sVsommeli
p1998
I3157
sVmonk
p1999
I1719
sVberkshir
p2000
I3283
sVnearbi
p2001
I1720
sVmont
p2002
I1721
sVinconsist
p2003
I1722
sVtout
p2004
I2943
sVwhimsic
p2005
I485
sVitem
p2006
I2732
sVawkward
p2007
I3138
sVmani
p2008
I486
sVthickli
p2009
I487
sVjoe
p2010
I4854
sVamong
p2011
I2945
sVbaklava
p2012
I3962
sVflavorless
p2013
I2946
sVdill
p2014
I4656
sVbarmarch
p2015
I2947
sVshirt
p2016
I4598
sVpot
p2017
I4215
sVinspir
p2018
I4216
sVrestaura
p2019
I4124
sVcurt
p2020
I3362
sVinsist
p2021
I526
sVduti
p2022
I4219
sVtwin
p2023
I488
sVdiffer
p2024
I4466
sVboar
p2025
I489
sVfreak
p2026
I4657
sVempanada
p2027
I4545
sVcoloni
p2028
I4220
sVboat
p2029
I490
sVturkey
p2030
I4221
sVsave
p2031
I2639
sVultim
p2032
I2949
sVahi
p2033
I3979
sVmara
p2034
I2950
sVcoupl
p2035
I4222
sVmarc
p2036
I2951
sVstretch
p2037
I491
sVwest
p2038
I492
sVhardli
p2039
I4224
sVmari
p2040
I2952
sVmark
p2041
I2953
sVbreath
p2042
I493
sVtoss
p2043
I2692
sVarti
p2044
I2954
sVaddit
p2045
I4857
sVbrisk
p2046
I3117
sVravioli
p2047
I4225
sVboneless
p2048
I4442
sVwonderful
p2049
I2145
sVeateri
p2050
I4226
sVfade
p2051
I3787
sVmonsieur
p2052
I1725
sVtasteless
p2053
I4227
sVala
p2054
I4349
sVfilter
p2055
I3812
sVthousand
p2056
I494
sVrubi
p2057
I1726
sVsquash
p2058
I2955
sVchao
p2059
I495
sVsort
p2060
I4710
sVstephen
p2061
I4443
sVwake
p2062
I2956
sVunivers
p2063
I2762
sVlectur
p2064
I2957
sVimpati
p2065
I4229
sVformer
p2066
I496
sVcountless
p2067
I1727
sVsound
p2068
I2958
sVcrumb
p2069
I1729
sVsit
p2070
I4732
sVreplac
p2071
I4951
sVmount
p2072
I4233
sVchinatown
p2073
I1730
sVcash
p2074
I4234
sVcast
p2075
I4235
sVbarbecu
p2076
I3717
sVlunchtim
p2077
I1731
sVpollo
p2078
I497
sVcoco
p2079
I2960
sVcobbler
p2080
I4004
sVmound
p2081
I4237
sVmargin
p2082
I2961
sVspotlight
p2083
I498
sVcoolest
p2084
I1732
sVambienc
p2085
I499
sVive
p2086
I500
sVanytim
p2087
I4238
sVmagnifico
p2088
I4005
sVadvantag
p2089
I2962
sVparmigiano
p2090
I2963
sVparmigiana
p2091
I2964
sVatomospher
p2092
I4239
sVhenc
p2093
I1733
sVivi
p2094
I501
sVworri
p2095
I1734
sVdestin
p2096
I2965
sVblah
p2097
I502
sVsudden
p2098
I363
sVwarehous
p2099
I503
sVambient
p2100
I504
sVoutrag
p2101
I2967
sVprotein
p2102
I2968
sVrestroom
p2103
I2940
sVgon
p2104
I3798
sVfame
p2105
I505
sVpar
p2106
I2971
sVeccentr
p2107
I3062
sVpat
p2108
I2972
sVharsh
p2109
I2973
sVauthor
p2110
I4242
sVshanghaines
p2111
I2588
sVpay
p2112
I2974
sVpepe
p2113
I2975
sVadmit
p2114
I2278
sVlava
p2115
I3153
sVcheck
p2116
I4006
sVgentlemen
p2117
I1735
sVya
p2118
I1890
sVinstanc
p2119
I3589
sVpad
p2120
I2976
sVcatfish
p2121
I4246
sVfo
p2122
I1873
sVlite
p2123
I1738
sVadmir
p2124
I4247
sVeventu
p2125
I679
sVplaster
p2126
I1202
sVpan
p2127
I2977
sVaura
p2128
I1723
sVweek
p2129
I4248
sVfinish
p2130
I1739
sVpasti
p2131
I4932
sVclosest
p2132
I1740
sVcheeri
p2133
I506
sVfoam
p2134
I1742
sVmunch
p2135
I2981
sVsomeon
p2136
I1743
sVcompanion
p2137
I2982
sVdriven
p2138
I4250
sVcapabl
p2139
I2983
sVfruit
p2140
I1744
sVimprov
p2141
I2944
sVragout
p2142
I4252
sVlemon
p2143
I4659
sVenchillada
p2144
I2985
sVeith
p2145
I1745
sVexperinc
p2146
I4253
sVhandsom
p2147
I4254
sVappropri
p2148
I2986
sVburrito
p2149
I716
sValfresco
p2150
I1748
sVband
p2151
I2987
sVcajun
p2152
I3894
sVgeniu
p2153
I507
sVmarkup
p2154
I2988
sVhubbi
p2155
I508
sVfacad
p2156
I4256
sVjustifi
p2157
I4257
sVhustl
p2158
I4258
sVwithout
p2159
I4259
sVpervad
p2160
I733
sVrelief
p2161
I4260
sValfredo
p2162
I510
sVsomebodi
p2163
I4448
sVmodel
p2164
I4262
sVgrappa
p2165
I741
sVroughli
p2166
I2989
sVbreezi
p2167
I1750
sVsummer
p2168
I511
sVlb
p2169
I3480
sVoutdoor
p2170
I2990
sVabund
p2171
I1752
sVstaircas
p2172
I1753
sVpoach
p2173
I512
sVmoney
p2174
I2993
sVharrison
p2175
I4266
sVgraciou
p2176
I1754
sVneon
p2177
I1755
sVactress
p2178
I758
sVweekli
p2179
I514
sVlavish
p2180
I4264
sVsteamer
p2181
I515
sVkill
p2182
I4265
sVsaffron
p2183
I4662
sVnicer
p2184
I2589
sVedamam
p2185
I4267
sVtouch
p2186
I1756
sVpolish
p2187
I4268
sVlaughabl
p2188
I516
sVspeed
p2189
I772
sVsmith
p2190
I4906
sVhalfway
p2191
I4269
sVconcentr
p2192
I517
sVindulg
p2193
I518
sVcilantro
p2194
I519
sVdeath
p2195
I1758
sVeurop
p2196
I1759
sVrosi
p2197
I4272
sVflood
p2198
I297
sVmcdonald
p2199
I2998
sVrose
p2200
I4274
sVreccomend
p2201
I786
sVlittl
p2202
I521
sVsilver
p2203
I86
sVcolor
p2204
I4214
sVbackround
p2205
I3001
sVvenison
p2206
I2698
sVpile
p2207
I3002
sVtreatment
p2208
I1760
sVsampler
p2209
I4277
sVstruck
p2210
I1761
sVdisrupt
p2211
I4278
sVtuesday
p2212
I2283
sVreal
p2213
I802
sVhover
p2214
I1763
sVgrit
p2215
I3003
sVaround
p2216
I523
sVspectacular
p2217
I807
sVread
p2218
I809
sVamb
p2219
I1764
sVladi
p2220
I1765
sVvirginia
p2221
I4279
sVseren
p2222
I3004
sVperiod
p2223
I4217
sVdark
p2224
I524
sVtemperatur
p2225
I3005
sVcrusti
p2226
I525
sVmon
p2227
I3006
sVdetract
p2228
I1766
sVreat
p2229
I1767
sVworld
p2230
I527
sVlinger
p2231
I4936
sVdare
p2232
I528
sVmod
p2233
I242
sVapathet
p2234
I1770
sVclam
p2235
I529
sVtowel
p2236
I4281
sVarrog
p2237
I530
sVstranger
p2238
I531
sVcrostini
p2239
I532
sVaunti
p2240
I2699
sVclad
p2241
I533
sVfajita
p2242
I1772
sVbracelet
p2243
I4282
sVshelf
p2244
I4788
sVleek
p2245
I1773
sVoxtail
p2246
I4283
sVbenefit
p2247
I844
sVserious
p2248
I4027
sVeither
p2249
I3009
sVglamor
p2250
I3337
sVclay
p2251
I534
sVnosh
p2252
I3010
sVclaw
p2253
I535
sVtower
p2254
I4284
sVsidewalk
p2255
I4471
sVmanag
p2256
I536
sVoddli
p2257
I4285
sVlaugh
p2258
I3595
sVgrub
p2259
I537
sVdoll
p2260
I3351
sVnaan
p2261
I3011
sVimpecc
p2262
I1774
sVdraw
p2263
I2650
sVgranit
p2264
I3355
sVplethora
p2265
I4635
sVcancel
p2266
I2948
sVadequ
p2267
I3012
sVlobster
p2268
I538
sVrefresh
p2269
I4450
sVpushi
p2270
I539
sVlofti
p2271
I2475
sVmacadamia
p2272
I2969
sVnt
p2273
I4016
sVfreez
p2274
I887
sVslice
p2275
I4287
sVcaribbean
p2276
I4288
sVmood
p2277
I4289
sVtemper
p2278
I2689
sVbento
p2279
I4291
sVtube
p2280
I540
sVdoggi
p2281
I3015
sVdefinit
p2282
I541
sVslick
p2283
I4293
sVlandscap
p2284
I4294
sVnook
p2285
I542
sVexit
p2286
I543
sVimpress
p2287
I4714
sVunbeliev
p2288
I4297
sVcontent
p2289
I2492
sVnotabl
p2290
I544
sVtoothsom
p2291
I3016
sVomakas
p2292
I545
sVrefer
p2293
I3396
sVwheat
p2294
I1778
sVcrouton
p2295
I3019
sVpower
p2296
I3406
sVhuevo
p2297
I1789
sVgarbag
p2298
I4299
sVbroken
p2299
I3021
sVhectic
p2300
I1779
sVfulli
p2301
I1896
sVthailand
p2302
I546
sVappli
p2303
I4701
sVthrow
p2304
I949
sVcomparison
p2305
I1780
sVstone
p2306
I547
sVcrunchi
p2307
I3792
sVcentral
p2308
I1781
sVgreatli
p2309
I1782
sVsupris
p2310
I2086
sVroar
p2311
I3022
sVisland
p2312
I3023
sVcornbread
p2313
I1302
sVchop
p2314
I1785
sVpistachio
p2315
I4306
sVdegre
p2316
I1786
sVfell
p2317
I2704
sVstand
p2318
I971
sVneighbor
p2319
I548
sVact
p2320
I549
sVchive
p2321
I4308
sVgreet
p2322
I1271
sVcarribean
p2323
I976
sVluck
p2324
I626
sVother
p2325
I4967
sVroad
p2326
I3024
sVop
p2327
I4310
sVamber
p2328
I4311
sVheater
p2329
I1790
sVeffici
p2330
I552
sVliveli
p2331
I553
sVgari
p2332
I4313
sVcoupon
p2333
I3025
sVther
p2334
I3000
sVlastli
p2335
I4314
sVgarb
p2336
I4315
sVessex
p2337
I554
sVsurviv
p2338
I555
sVceleriac
p2339
I1791
sVoverpow
p2340
I556
sVbisqu
p2341
I3302
sVstrip
p2342
I3027
sVuptown
p2343
I3028
sVnurs
p2344
I1792
sVskillet
p2345
I4661
sVgrigio
p2346
I2584
sVyour
p2347
I1793
sVangu
p2348
I3139
sVstare
p2349
I1011
sVyam
p2350
I4317
sVfast
p2351
I4640
sVweight
p2352
I4454
sVarea
p2353
I1795
sVgleam
p2354
I557
sVexecut
p2355
I2991
sVthere
p2356
I4318
sVhey
p2357
I558
sVstark
p2358
I1028
sVstart
p2359
I1032
sVcafe
p2360
I3369
sVstarv
p2361
I1798
sVfranchis
p2362
I925
sVlow
p2363
I1799
sVlot
p2364
I1800
sVbrazilian
p2365
I559
sVpremis
p2366
I1043
sVbottl
p2367
I561
sVhous
p2368
I3126
sVenough
p2369
I2907
sVswanki
p2370
I4600
sVregard
p2371
I4320
sVpitcher
p2372
I1803
sVyounger
p2373
I4023
sVamongst
p2374
I1063
sVprawn
p2375
I1303
sVspici
p2376
I3029
sVsatur
p2377
I1805
sVomelet
p2378
I1806
sVgorg
p2379
I3030
sVdairi
p2380
I4357
sVhappier
p2381
I4670
sVvindaloo
p2382
I3031
sVcongratul
p2383
I562
sVspice
p2384
I3033
sVpull
p2385
I563
sVtripl
p2386
I564
sVdirti
p2387
I565
sVpossibl
p2388
I3036
sVtripe
p2389
I566
sVbucket
p2390
I1809
sVnostalg
p2391
I3037
sVflirt
p2392
I3579
sVcarnivor
p2393
I3038
sVunusu
p2394
I3039
sVjamaican
p2395
I567
sVmagnolia
p2396
I1353
sVribey
p2397
I2142
sVextrem
p2398
I2751
sVpinch
p2399
I2478
sVouting
p2400
I2088
sVpuls
p2401
I569
sVpatata
p2402
I1278
sVgone
p2403
I571
sVac
p2404
I572
sVoverse
p2405
I3443
sVtasti
p2406
I4325
sVbolognes
p2407
I1811
sVcreat
p2408
I573
sVai
p2409
I574
sVcertain
p2410
I575
sVprinc
p2411
I3174
sVdeer
p2412
I3041
sVal
p2413
I576
sVdeep
p2414
I3042
sVwatcher
p2415
I577
sVstrongli
p2416
I4328
sVmainli
p2417
I4112
sVdeem
p2418
I3044
sVau
p2419
I578
sVjohnni
p2420
I579
sVcultur
p2421
I3046
sVgirlfriend
p2422
I3047
sVtranquil
p2423
I3613
sVproport
p2424
I3048
sVenergi
p2425
I1883
sVcoconut
p2426
I2873
sVcream
p2427
I580
sVincorrect
p2428
I4330
sVjacket
p2429
I2709
sVpillowi
p2430
I4338
sVidiot
p2431
I4331
sVpersonnel
p2432
I3051
sVpuppi
p2433
I581
sVhybrid
p2434
I3052
sVbanquett
p2435
I4332
sVevent
p2436
I1905
sVtight
p2437
I582
sVquick
p2438
I4044
sVcopiou
p2439
I3055
sVsculptur
p2440
I583
sVparatha
p2441
I4241
sVtrash
p2442
I4334
sVdrafti
p2443
I584
sVjuic
p2444
I1814
sVpoor
p2445
I1815
sVcritic
p2446
I4093
sVbrandi
p2447
I3057
sVgenuin
p2448
I585
sVbranzino
p2449
I586
sVteeth
p2450
I2711
sVpear
p2451
I1816
sVcove
p2452
I4336
sVlacklust
p2453
I587
sVflower
p2454
I3173
sVpeak
p2455
I1817
sVsensat
p2456
I2638
sVbrass
p2457
I4337
sVunless
p2458
I3543
sVpeac
p2459
I1819
sVinexplic
p2460
I588
sVkiev
p2461
I2490
sVreduc
p2462
I1821
sVunobtrus
p2463
I4526
sVhavana
p2464
I3059
sVsuprem
p2465
I4339
sVmasa
p2466
I589
sVstringi
p2467
I1822
sVbuffalo
p2468
I4672
sVdog
p2469
I2546
sVdescript
p2470
I3061
sVzimbabw
p2471
I4342
sVcabbag
p2472
I4343
sVmash
p2473
I590
sVgroov
p2474
I591
sVheavenli
p2475
I3800
sVdiscreet
p2476
I2644
sVmass
p2477
I592
sVcastl
p2478
I3065
sVgod
p2479
I3801
sVescap
p2480
I3066
sVplatter
p2481
I4345
sVsco
p2482
I593
sVblintz
p2483
I1824
sVpheasant
p2484
I3067
sVconsider
p2485
I594
sVfounder
p2486
I3069
sVmug
p2487
I3890
sVmozzerella
p2488
I3070
sVsuburban
p2489
I3708
sVlack
p2490
I4348
sVdollar
p2491
I3071
sVmonth
p2492
I1825
sVaptli
p2493
I4376
sVatlant
p2494
I3072
sVtats
p2495
I4506
sVescarol
p2496
I4350
sVspite
p2497
I3873
sVzinc
p2498
I3073
sVbulb
p2499
I3599
sVdish
p2500
I4353
sVfollow
p2501
I4354
sVporcini
p2502
I3074
sVlace
p2503
I4347
sVchildren
p2504
I3075
sVcarpet
p2505
I1826
sVasada
p2506
I1827
sVcalimari
p2507
I1828
sVreliabl
p2508
I4978
sVtv
p2509
I3737
sVdainti
p2510
I900
sVts
p2511
I596
sVthursday
p2512
I4358
sVsashimi
p2513
I3076
sVtail
p2514
I597
sVaward
p2515
I3077
sVnapoleon
p2516
I3600
sVth
p2517
I598
sVskip
p2518
I2713
sVcrimson
p2519
I3078
sVsmile
p2520
I599
sVnori
p2521
I600
sVte
p2522
I601
sVintroduc
p2523
I602
sVta
p2524
I603
sVcase
p2525
I4231
sVliter
p2526
I1252
sVpremium
p2527
I3079
sVvert
p2528
I1829
sVsong
p2529
I4362
sVfals
p2530
I3080
sVearthi
p2531
I4151
sVstrictli
p2532
I4319
sVfav
p2533
I4364
sVfat
p2534
I4365
sVfocus
p2535
I4366
sVutil
p2536
I3081
sVprint
p2537
I3175
sVfan
p2538
I3437
sVverd
p2539
I1277
sVverg
p2540
I1831
sVfall
p2541
I3082
sVatroci
p2542
I3349
sVlabor
p2543
I3483
sVsubterranean
p2544
I3083
sVpuffi
p2545
I3084
sVramen
p2546
I3085
sVstrang
p2547
I604
sVmouss
p2548
I2606
sVcommon
p2549
I3241
sVheaven
p2550
I1833
sVharri
p2551
I605
sVcolleagu
p2552
I606
sVsignific
p2553
I4031
sVpartak
p2554
I4091
sVsang
p2555
I3799
sVsand
p2556
I607
sVadjust
p2557
I608
sVlism
p2558
I4371
sVsmall
p2559
I609
sVbench
p2560
I3631
sVstumbl
p2561
I4032
sVfallen
p2562
I4474
sVmile
p2563
I2716
sVdunk
p2564
I1910
sVquicker
p2565
I610
sVneighborhood
p2566
I3087
sVten
p2567
I4373
sVbistro
p2568
I4374
sVtea
p2569
I4375
sVsider
p2570
I3088
sVdrool
p2571
I3840
sVpast
p2572
I611
sVburger
p2573
I3089
sVzero
p2574
I3090
sVpressur
p2575
I4379
sVdesign
p2576
I4380
sVinexcus
p2577
I612
sVpass
p2578
I613
sVrectangular
p2579
I3604
sVcasual
p2580
I1836
sVribbon
p2581
I3092
sVlusciou
p2582
I1837
sVexcit
p2583
I3854
sVwaffl
p2584
I3093
sVstood
p2585
I3094
sVcutest
p2586
I2494
sVmaritim
p2587
I1348
sVclock
p2588
I615
sVskeptic
p2589
I3095
sVsun
p2590
I4382
sVsection
p2591
I616
sVworthwhil
p2592
I3807
sVabl
p2593
I3097
sVbrief
p2594
I4385
sVmesquit
p2595
I1838
sVdcor
p2596
I3098
sVpud
p2597
I1913
sVversion
p2598
I4387
sVintersect
p2599
I4388
sVdeepli
p2600
I4389
sVrow
p2601
I4390
sVmethod
p2602
I617
sVcontrast
p2603
I618
sVessenc
p2604
I1839
sVfull
p2605
I619
sVhash
p2606
I620
sVcoca
p2607
I2959
sVfave
p2608
I2496
sVzesti
p2609
I3725
sVsophist
p2610
I3101
sVsuspici
p2611
I3177
sVmiddl
p2612
I1500
sVexcess
p2613
I1841
sVdepend
p2614
I2720
sVgoodby
p2615
I4392
sVstrong
p2616
I1842
sVconvinc
p2617
I3119
sVlegend
p2618
I3911
sVvalu
p2619
I3102
sVlend
p2620
I3372
sVpleasant
p2621
I4393
sVsearch
p2622
I3917
sVnd
p2623
I4263
sVinattent
p2624
I1514
sVahead
p2625
I1843
sVmilki
p2626
I3103
sVpiquant
p2627
I4395
sVvegetarian
p2628
I1844
sVguacamol
p2629
I622
sVstorefront
p2630
I3104
sVlomo
p2631
I1845
sVprior
p2632
I623
sVamount
p2633
I1846
sVlasagna
p2634
I3105
sVarent
p2635
I1847
sVsocial
p2636
I624
sVaction
p2637
I625
sVnarrow
p2638
I3217
sVintric
p2639
I3180
sVspoil
p2640
I4855
sVchunki
p2641
I1848
sVvia
p2642
I627
sVdepart
p2643
I628
sVvie
p2644
I629
sVvin
p2645
I630
sVfriendli
p2646
I2093
sVask
p2647
I1919
sVvip
p2648
I631
sVsnug
p2649
I4397
sVinappropri
p2650
I3107
sVfamili
p2651
I1851
sVdemonstr
p2652
I2864
sVmotif
p2653
I4888
sVestablish
p2654
I3108
sVdangl
p2655
I1852
sVselect
p2656
I632
sVaggress
p2657
I1853
sVeye
p2658
I3110
sVkhao
p2659
I1854
sVenliven
p2660
I633
sVliber
p2661
I3112
sVregist
p2662
I3978
sVtwo
p2663
I3113
sVbizarr
p2664
I4402
sVrustic
p2665
I4403
sVpearl
p2666
I634
sVsplash
p2667
I3114
sVmorn
p2668
I635
sVtrip
p2669
I4244
sVgorgeous
p2670
I636
sVtaken
p2671
I1856
sVcollard
p2672
I3945
sVchicken
p2673
I4819
sVgarnish
p2674
I4404
sVminor
p2675
I4405
sVswoop
p2676
I2724
sVchestnut
p2677
I1857
sVtikka
p2678
I1483
sVscotia
p2679
I3115
sVdoor
p2680
I637
sVatmoshper
p2681
I4677
sVloft
p2682
I3916
sVlousi
p2683
I1314
sVhundr
p2684
I639
sVapologet
p2685
I640
sVpreciou
p2686
I1859
sVsip
p2687
I4731
sVyuca
p2688
I1860
sVneapolitan
p2689
I1861
sVmill
p2690
I2718
sVstick
p2691
I4410
sVbroke
p2692
I1862
sVparticular
p2693
I3120
sVmagnific
p2694
I3121
sVcompani
p2695
I641
sVuncook
p2696
I642
sVmaryland
p2697
I3386
sVglad
p2698
I4414
sVsunshin
p2699
I2498
sVtown
p2700
I3123
sVbedford
p2701
I643
sVnone
p2702
I3124
sVhour
p2703
I3125
sVcluster
p2704
I2966
sVcitizen
p2705
I4361
sVmalt
p2706
I644
sVhistori
p2707
I1525
sVtapioca
p2708
I4416
sVmall
p2709
I645
sVsuckl
p2710
I3128
sVnine
p2711
I1864
sVning
p2712
I1865
sVlearn
p2713
I4055
sVmale
p2714
I646
sVconsistantli
p2715
I3130
sVdef
p2716
I2536
sVexplod
p2717
I3131
sVtranscend
p2718
I1866
sVshark
p2719
I3132
sVprompt
p2720
I647
sVeclect
p2721
I4175
sVchalleng
p2722
I648
sVshare
p2723
I3133
sVstaten
p2724
I649
sVaccept
p2725
I650
sVautumn
p2726
I651
sVminimum
p2727
I3134
sVmasculin
p2728
I652
sVexplos
p2729
I3136
sVguitar
p2730
I4206
sVsharp
p2731
I3137
sVdress
p2732
I653
sVhuge
p2733
I654
sVbrowni
p2734
I655
sVcourt
p2735
I4423
sVbat
p2736
I2561
sVfreshli
p2737
I656
sVloui
p2738
I2499
sVecclect
p2739
I657
sVanoth
p2740
I1867
sVstripe
p2741
I3297
sVcomfort
p2742
I4108
sVmilk
p2743
I2719
sVenviron
p2744
I3772
sVmapl
p2745
I3140
sVfondu
p2746
I2296
sVquesadilla
p2747
I3141
sVjasmin
p2748
I4549
sVfed
p2749
I4706
sVreject
p2750
I1868
sVsimpl
p2751
I658
sVcannelloni
p2752
I1608
sVplant
p2753
I659
sVgloppi
p2754
I660
sVft
p2755
I1870
sVwaitstaff
p2756
I661
sVblacken
p2757
I3143
sVunassum
p2758
I4327
sVsoundtrack
p2759
I4130
sVembrac
p2760
I1872
sVblood
p2761
I3144
sVanymor
p2762
I3735
sVmaitr
p2763
I4431
sVbackyard
p2764
I662
sVassoci
p2765
I3145
sVplank
p2766
I663
sVvintag
p2767
I1655
sVcantones
p2768
I1874
sVshort
p2769
I4432
sVorchard
p2770
I3146
sVloud
p2771
I2503
sVwobbl
p2772
I3148
sVbreadi
p2773
I3624
sVdragon
p2774
I3149
sVcaus
p2775
I4433
sVsnotti
p2776
I664
sVego
p2777
I1875
sVmeze
p2778
I1876
sVhalibut
p2779
I3496
sVcigarett
p2780
I665
sVrowdi
p2781
I666
sVballoon
p2782
I1492
sVpatio
p2783
I667
sVgastronom
p2784
I668
sVfeed
p2785
I4475
sVmexican
p2786
I669
sVdisast
p2787
I912
sVburn
p2788
I2665
sVintimid
p2789
I4435
sVbowl
p2790
I4243
sVartwork
p2791
I4037
sVsooo
p2792
I1880
sVsoon
p2793
I1881
sVtrade
p2794
I4195
sVheld
p2795
I1882
sVisnt
p2796
I4438
sVpaper
p2797
I671
sVdough
p2798
I3152
sVcrabcak
p2799
I3154
sVbric
p2800
I4201
sVbroadway
p2801
I672
sVshiso
p2802
I2103
sVsuffer
p2803
I3155
sVbrie
p2804
I673
sVlatt
p2805
I3156
sVstyle
p2806
I4439
sVrender
p2807
I1320
sValla
p2808
I674
sVcall
p2809
I2423
sVscone
p2810
I4801
sVbrows
p2811
I4440
sVpotpi
p2812
I4441
sVsumptuou
p2813
I675
sVlate
p2814
I3158
sVgrade
p2815
I2505
sVbeig
p2816
I2295
sVshank
p2817
I4953
sVastonish
p2818
I1885
sVfamou
p2819
I4478
sVfriendliest
p2820
I1886
sVpenn
p2821
I3159
sVdelici
p2822
I1887
sVsoccer
p2823
I1728
sVmight
p2824
I4445
sValter
p2825
I4446
sVround
p2826
I2734
sVfool
p2827
I1888
sVtri
p2828
I4525
sVant
p2829
I4167
sVgood
p2830
I3161
sVreturn
p2831
I4447
sVyo
p2832
I1889
sVfood
p2833
I1736
sVsolo
p2834
I4551
sVye
p2835
I1891
sVwasabi
p2836
I676
sVgracious
p2837
I1403
sVszechuan
p2838
I1892
sVgoos
p2839
I3162
sVfoot
p2840
I1893
sVmagic
p2841
I915
sVyr
p2842
I1894
sVcomplain
p2843
I3164
sVbigger
p2844
I4449
sVfeet
p2845
I4479
sVholiday
p2846
I4752
sVhook
p2847
I2506
sVnugget
p2848
I680
sVsloppi
p2849
I4444
sVunlik
p2850
I2507
sVauthent
p2851
I681
sVbless
p2852
I1895
sVeasili
p2853
I4290
sVachiev
p2854
I682
sVrobiola
p2855
I4451
sVcompris
p2856
I4452
sVvalentin
p2857
I4453
sVfound
p2858
I683
sVpao
p2859
I2978
sVreminisc
p2860
I4304
sVbutton
p2861
I2099
sVtrailer
p2862
I1897
sVuninterest
p2863
I1926
sVembarass
p2864
I684
sVpoblano
p2865
I4894
sVengland
p2866
I685
sVpamper
p2867
I1899
sVsurli
p2868
I3167
sVsquishi
p2869
I1900
sVmichael
p2870
I2100
sVfish
p2871
I3168
sVhard
p2872
I3169
sVidea
p2873
I3170
sVrealli
p2874
I686
sVheavi
p2875
I1901
sVtaff
p2876
I1902
sVoil
p2877
I2979
sVpiano
p2878
I4824
sVryan
p2879
I2101
sVfist
p2880
I3171
sVkobe
p2881
I4459
sVcolumbia
p2882
I1903
sVtiffani
p2883
I614
sVbeyond
p2884
I1904
sVreduct
p2885
I688
sVlemongrass
p2886
I1906
sVsimplic
p2887
I2545
sVmassiv
p2888
I2508
sValcohol
p2889
I4460
sVcandlelight
p2890
I690
sVteak
p2891
I1907
sVrobert
p2892
I1908
sVtempura
p2893
I4127
sVseaport
p2894
I1664
sVtiramisu
p2895
I692
sVsilki
p2896
I693
sVyellowtail
p2897
I1909
sVfab
p2898
I4368
sVuniformli
p2899
I4021
sVabsorb
p2900
I2301
sVsparingli
p2901
I694
sVpasser
p2902
I4484
sVarctic
p2903
I1741
sVass
p2904
I1835
sVextraordinari
p2905
I3176
sVqualifi
p2906
I695
sVassist
p2907
I2980
sVbass
p2908
I1911
sVdirt
p2909
I1912
sVrude
p2910
I1871
sVpuf
p2911
I1914
sVfriday
p2912
I4465
sVdung
p2913
I1915
sVattempt
p2914
I2453
sVpub
p2915
I1916
sVness
p2916
I4249
sVmmm
p2917
I3178
sVoutnumb
p2918
I3179
sVreason
p2919
I1917
sVbase
p2920
I1918
sVbeliev
p2921
I697
sVbouch
p2922
I4468
sVshrimp
p2923
I4305
sVput
p2924
I1850
sVteach
p2925
I4469
sVluger
p2926
I4470
sVshish
p2927
I2102
sVbasi
p2928
I1920
sVthrown
p2929
I4472
sVquich
p2930
I4045
sVantipasto
p2931
I4899
sVdevoid
p2932
I4251
sVdip
p2933
I2733
sVspinach
p2934
I2511
sVsuccess
p2935
I3638
sVadvanc
p2936
I4464
sVstruggl
p2937
I698
sVblossom
p2938
I1928
sVamerican
p2939
I1921
sVkung
p2940
I1922
sVw
I699
sVpoivr
p2941
I2512
sVels
p2942
I3947
sVhorseradish
p2943
I2835
sVhabit
p2944
I3526
sVassign
p2945
I713
sVmiso
p2946
I1924
sVcopper
p2947
I3182
sVmajor
p2948
I700
sVbrisket
p2949
I4487
sVguac
p2950
I701
sVdont
p2951
I3183
sVobviou
p2952
I1925
sVfeel
p2953
I4477
sVexchang
p2954
I3184
sVghetto
p2955
I4832
sVnumber
p2956
I702
sVafternoo
p2957
I3185
sVsometim
p2958
I2514
sVceleb
p2959
I703
sVpop
p2960
I4218
sVnestl
p2961
I3397
sVdone
p2962
I3186
sVpretenti
p2963
I1898
sVblank
p2964
I4480
sVbland
p2965
I4481
sVhorribl
p2966
I704
sVguard
p2967
I3665
sVmiss
p2968
I1927
sVfanci
p2969
I4482
sVblanc
p2970
I4483
sVkoi
p2971
I3187
sVsarcast
p2972
I3829
sVguess
p2973
I705
sVguest
p2974
I706
sVjet
p2975
I707
sVbenedict
p2976
I708
sVinteract
p2977
I4486
sVbay
p2978
I2563
sVconstruct
p2979
I823
sVscallion
p2980
I4488
sVpaint
p2981
I3189
sVstori
p2982
I4489
sVstation
p2983
I1930
sVunrecogniz
p2984
I709
sVmosaic
p2985
I1931
sVsaint
p2986
I710
sVvidalia
p2987
I711
sVmama
p2988
I3190
sVtwenti
p2989
I3191
sVscheme
p2990
I1932
sVsyrup
p2991
I4491
sVbanana
p2992
I1933
sVheadi
p2993
I712
sVluckili
p2994
I4494
sVchardonnay
p2995
I4041
sVstorm
p2996
I4490
sVbehind
p2997
I1934
sVnorma
p2998
I1935
sVtom
p2999
I3831
sVpark
p3000
I3193
sVpari
p3001
I3194
sVmmmm
p3002
I714
sVpart
p3003
I3195
sVwarmli
p3004
I715
sVmural
p3005
I3401
sVtheater
p3006
I1747
sVhistor
p3007
I4792
sVgrace
p3008
I717
sVfred
p3009
I3810
sValbeit
p3010
I1970
sVtortellini
p3011
I718
sVgrew
p3012
I1936
sVcontrari
p3013
I3197
sVbako
p3014
I4049
sVremot
p3015
I4501
sVgotten
p3016
I3198
sVremov
p3017
I4502
sVdant
p3018
I4503
sVsatisf
p3019
I3199
sVgrey
p3020
I1937
sVknive
p3021
I4505
sVcomfi
p3022
I4492
sVgroceri
p3023
I1938
sVbridg
p3024
I1939
sVkindli
p3025
I1940
sVarrang
p3026
I719
sVstale
p3027
I1987
sVunderstaf
p3028
I720
sVdanc
p3029
I4507
sVmussl
p3030
I1942
sVporterhous
p3031
I4954
sVaccomod
p3032
I3403
sVmickey
p3033
I1943
sVcomput
p3034
I721
sVcoleslaw
p3035
I1944
sVurban
p3036
I3833
sVwasnt
p3037
I1945
sVantipasti
p3038
I4900
sVparsnip
p3039
I2858
sVbeforehand
p3040
I722
sVgreenwich
p3041
I3943
sVwaft
p3042
I4786
sVmarbl
p3043
I4509
sVprofiterol
p3044
I3201
sVpackag
p3045
I723
sVcomplet
p3046
I3932
sVblond
p3047
I724
sVgall
p3048
I4510
sVrequisit
p3049
I725
sVjuici
p3050
I1948
sVoption
p3051
I4495
sVsell
p3052
I726
sVimagin
p3053
I1949
sVjour
p3054
I1950
sVbuilt
p3055
I3204
sVequival
p3056
I727
sVclutch
p3057
I4121
sVlil
p3058
I1951
sVodd
p3059
I927
sVself
p3060
I729
sVcave
p3061
I1952
sVforget
p3062
I3068
sVcouch
p3063
I322
sVlit
p3064
I1953
sValso
p3065
I731
sVcaesar
p3066
I3206
sVlip
p3067
I2027
sVuseless
p3068
I1954
sVquattro
p3069
I3836
sVdehydr
p3070
I732
sVveal
p3071
I509
sVdifficult
p3072
I4893
sVpianist
p3073
I4515
sVbrace
p3074
I734
sVparm
p3075
I3192
sVcoff
p3076
I735
sVzucchini
p3077
I3209
sVplay
p3078
I736
sVhotel
p3079
I4496
sVexel
p3080
I4516
sVeater
p3081
I1955
sVpreviou
p3082
I3210
sVreach
p3083
I2048
sVmixtur
p3084
I1956
sVlavend
p3085
I737
sVupstair
p3086
I4070
sVbrooklyn
p3087
I738
sVcharm
p3088
I3212
sVplan
p3089
I739
sVeaten
p3090
I1957
sVfaux
p3091
I4796
sVchard
p3092
I3213
sVoyster
p3093
I740
sVstrawberri
p3094
I3034
sVfrankli
p3095
I3843
sVcompar
p3096
I3215
sVclear
p3097
I1958
sVpastri
p3098
I2875
sVcover
p3099
I742
sVrais
p3100
I3813
sVtransplant
p3101
I2756
sVmammoth
p3102
I3216
sVrestur
p3103
I743
sVclean
p3104
I1959
sVsturdi
p3105
I1960
sVasur
p3106
I744
sVsaloon
p3107
I4520
sVusual
p3108
I3626
sVblend
p3109
I1962
sVopul
p3110
I3984
sVawesom
p3111
I1963
sVflavo
p3112
I4522
sVvisibl
p3113
I4071
sVcroquett
p3114
I4523
sVchowder
p3115
I745
sVridicul
p3116
I4524
sVgold
p3117
I746
sVvelveti
p3118
I1964
sVespresso
p3119
I3218
sVflicker
p3120
I1965
sVzerza
p3121
I3384
sVmoroccan
p3122
I747
sVmasterpiec
p3123
I4634
sVpleaser
p3124
I4816
sVcrayon
p3125
I1966
sVfillet
p3126
I2738
sVfireplac
p3127
I748
sVreput
p3128
I749
sVfianc
p3129
I750
sVfind
p3130
I3223
sVaccess
p3131
I3408
sVgiant
p3132
I3224
sVpatisseri
p3133
I751
sVpretti
p3134
I1967
sVruin
p3135
I3225
sVless
p3136
I1968
sVrudest
p3137
I2126
sVgooey
p3138
I752
sVbeat
p3139
I3563
sVsnobbish
p3140
I754
sVfactor
p3141
I755
sVunattent
p3142
I756
sVmoist
p3143
I4514
sVunhappi
p3144
I3226
sVhip
p3145
I4527
sVshepherd
p3146
I4528
sVhit
p3147
I4529
sVpalett
p3148
I1969
sVmein
p3149
I3227
sVluke
p3150
I3228
sVexpress
p3151
I3229
sVkind
p3152
I4498
sVcheaper
p3153
I3230
sVfunghi
p3154
I757
sVb
I3196
sVbatter
p3155
I3231
sVrest
p3156
I513
sVnautic
p3157
I3233
sVbasement
p3158
I1971
sVambiti
p3159
I760
sVgratin
p3160
I761
sVsunni
p3161
I762
sVbanquet
p3162
I4532
sVmolten
p3163
I1972
sVthink
p3164
I2853
sVheartier
p3165
I3236
sVhomag
p3166
I3237
sVcrabmeat
p3167
I3238
sVstroll
p3168
I1701
sVbrasseri
p3169
I3239
sVantiqu
p3170
I1973
sVtavern
p3171
I3240
sVcaramel
p3172
I763
sVunpretenti
p3173
I1775
sVhype
p3174
I1974
sVx
I1975
sVvincent
p3175
I4535
sVcri
p3176
I764
sVrear
p3177
I1769
sVcro
p3178
I4775
sVwrote
p3179
I4536
sVunseason
p3180
I4793
sVcertif
p3181
I2196
sVcramp
p3182
I2198
sVset
p3183
I765
sVart
p3184
I4537
sVaspect
p3185
I2994
sVdump
p3186
I4538
sVoverwhelm
p3187
I766
sVvine
p3188
I2062
sVdelux
p3189
I1976
sVpotent
p3190
I4790
sVsex
p3191
I767
sVvongerichten
p3192
I3181
sVsee
p3193
I768
sVdumb
p3194
I2220
sVsea
p3195
I769
sVtender
p3196
I3242
sVclose
p3197
I1977
sVbark
p3198
I4541
sVsel
p3199
I770
sVwhatsoev
p3200
I1978
sVbarn
p3201
I4544
sVproject
p3202
I771
sVcreme
p3203
I4548
sVexpert
p3204
I3244
sVhamachi
p3205
I1757
sVwow
p3206
I1979
sVleg
p3207
I934
sVnutella
p3208
I4547
sVaftertast
p3209
I3591
sVplush
p3210
I1981
sVwoo
p3211
I1
sVbohemian
p3212
I3200
sVfreindli
p3213
I3247
sVwok
p3214
I1982
sVexperi
p3215
I3248
sVunaccomod
p3216
I3249
sVrosa
p3217
I4550
sVcompliment
p3218
I4835
sVmeal
p3219
I2482
sValtern
p3220
I3250
sVsignatur
p3221
I774
sVesca
p3222
I4655
sVkorea
p3223
I1445
sVbrush
p3224
I4948
sViron
p3225
I1333
sVnorthern
p3226
I2117
sVnumer
p3227
I1984
sVcomplement
p3228
I3252
sVsole
p3229
I4554
sVaspir
p3230
I4555
sVworst
p3231
I4367
sVoutfit
p3232
I4556
sVhill
p3233
I4462
sVsamba
p3234
I4271
sVinfam
p3235
I3253
sVcomplementari
p3236
I3254
sVdistinguish
p3237
I1985
sVnervou
p3238
I1986
sVmustard
p3239
I4668
sVpurpl
p3240
I3256
sVpopul
p3241
I3257
sVcenterpiec
p3242
I3258
sVbodi
p3243
I3411
sVc
I4559
sVtoward
p3244
I1941
sVlast
p3245
I777
sVmega
p3246
I1988
sVajillo
p3247
I3552
sVthou
p3248
I778
sVparad
p3249
I2997
sValon
p3250
I3259
sVsardin
p3251
I3260
sVvenu
p3252
I3593
sVpatti
p3253
I779
sVrotat
p3254
I3151
sVmegu
p3255
I1989
sVentertain
p3256
I4058
sVeggplant
p3257
I1990
sVbuzz
p3258
I1991
sVvault
p3259
I1992
sVmean
p3260
I2484
sVwhole
p3261
I780
sVcozi
p3262
I4693
sVload
p3263
I781
sVsubpar
p3264
I3263
sVloaf
p3265
I782
sVdietari
p3266
I3264
sVsimpli
p3267
I3265
sVdistress
p3268
I4562
sVbell
p3269
I783
sVschedul
p3270
I784
sVsammi
p3271
I785
sVstuck
p3272
I3985
sVcrispi
p3273
I4564
sVsmother
p3274
I3267
sVexcept
p3275
I4275
sVscallop
p3276
I787
sVcarlo
p3277
I3405
sVdancer
p3278
I3268
sVsuppli
p3279
I3269
sVrave
p3280
I2330
sVtechniqu
p3281
I4169
sVranchero
p3282
I4567
sVthroughout
p3283
I3270
sVmission
p3284
I4436
sVdeceiv
p3285
I2741
sVbelt
p3286
I788
sVsever
p3287
I2617
sVps
p3288
I4570
sVpepperi
p3289
I3271
sVdevil
p3290
I789
sVjava
p3291
I4571
sVcorni
p3292
I128
sVpt
p3293
I4572
sVduo
p3294
I4573
sVcasa
p3295
I4232
sVoverlook
p3296
I4574
sVdue
p3297
I4575
sVempti
p3298
I1996
sVdistrict
p3299
I4145
sVquench
p3300
I2524
sVsecret
p3301
I3273
sVnewcom
p3302
I1997
sVdamn
p3303
I1998
sVwraparound
p3304
I4578
sVocean
p3305
I3935
sVhing
p3306
I4276
sVbrick
p3307
I4579
sVcomic
p3308
I4114
sVpo
p3309
I4580
sVpanko
p3310
I4581
sVpm
p3311
I4582
sVfirm
p3312
I790
sVadventur
p3313
I3163
sVmodern
p3314
I2525
sVflight
p3315
I4583
sVphenomen
p3316
I4407
sVsyracus
p3317
I1603
sVfire
p3318
I792
sVphilli
p3319
I1946
sVconvivi
p3320
I2549
sVcrack
p3321
I1999
sVfrite
p3322
I793
sVwannab
p3323
I3275
sVcoordin
p3324
I2375
sVpricey
p3325
I3276
sVgal
p3326
I3277
sVunderstand
p3327
I3278
sVliver
p3328
I2000
sVdemand
p3329
I4585
sVstandout
p3330
I4059
sVeduc
p3331
I795
sVchatter
p3332
I3279
sVconvers
p3333
I3280
sVmozarella
p3334
I796
sVbruschetta
p3335
I3281
sVhighest
p3336
I4292
sVloom
p3337
I2001
sVsweetbread
p3338
I797
sVlook
p3339
I2002
sVhostess
p3340
I798
sVpedestrian
p3341
I4588
sVsolid
p3342
I3284
sVwarrant
p3343
I2314
sVstraight
p3344
I799
sVbill
p3345
I3285
sVgem
p3346
I2919
sVbudget
p3347
I800
sVflavor
p3348
I2995
sVrope
p3349
I2003
sVpace
p3350
I2004
sVropa
p3351
I2005
sVkick
p3352
I2315
sVbehavior
p3353
I4592
sVerror
p3354
I801
sVfun
p3355
I3286
sVful
p3356
I3287
sVfixtur
p3357
I2007
sVloos
p3358
I2008
sVmanner
p3359
I1338
sVearli
p3360
I1762
sVpound
p3361
I803
sVmeringu
p3362
I2867
sVrap
p3363
I3847
sVandi
p3364
I4632
sVreadi
p3365
I2010
sVpetal
p3366
I2011
sVgreaseless
p3367
I1813
sVrip
p3368
I4593
sVsnobbi
p3369
I4696
sVsitar
p3370
I2169
sVshoddi
p3371
I3289
sVspong
p3372
I2439
sVcenturi
p3373
I49
sVquail
p3374
I4595
sVrid
p3375
I4596
sVroutin
p3376
I4312
sVdedic
p3377
I2012
sVchase
p3378
I805
sVshove
p3379
I4586
sVdecor
p3380
I806
sVextraordinarili
p3381
I2013
sVgrant
p3382
I2014
sVnotch
p3383
I4521
sVmint
p3384
I2534
sVbelong
p3385
I2015
sVbutcher
p3386
I3291
sVincarn
p3387
I3292
sVallergi
p3388
I3723
sVfunni
p3389
I77
sVwierd
p3390
I2461
sVitali
p3391
I3293
sVseduct
p3392
I3294
sVgrand
p3393
I2016
sVruth
p3394
I87
sVyucca
p3395
I4602
sVupbeat
p3396
I3598
sVsliver
p3397
I2480
sVhallway
p3398
I2018
sVcappucino
p3399
I810
sVsnail
p3400
I811
sVdime
p3401
I2019
sVnabe
p3402
I812
sVcigar
p3403
I813
sVwherea
p3404
I4604
sVyesterday
p3405
I3295
sVhealthi
p3406
I4064
sVmoment
p3407
I3296
sVfatti
p3408
I2020
sVmussel
p3409
I944
sVrobust
p3410
I4605
sVdine
p3411
I4476
sVknack
p3412
I4606
sVstack
p3413
I814
sVrecent
p3414
I815
sVminestron
p3415
I816
sVlower
p3416
I2518
sVtask
p3417
I3298
sVentre
p3418
I3299
sVampl
p3419
I3300
sVeleg
p3420
I817
sVsavvi
p3421
I2022
sVentri
p3422
I3301
sVcheek
p3423
I4607
sVspent
p3424
I131
sVhonor
p3425
I3422
sVpickl
p3426
I818
sVperson
p3427
I819
sVcheer
p3428
I4609
sVanchovi
p3429
I4280
sVexpens
p3430
I820
sVelev
p3431
I821
sVhomestyl
p3432
I3303
sVswiss
p3433
I3304
sVtraffic
p3434
I3305
sVposh
p3435
I4052
sVtast
p3436
I3306
sVspend
p3437
I92
sVedgi
p3438
I2530
sVexplan
p3439
I3308
sVmom
p3440
I3007
sVshoo
p3441
I2901
sVpomegran
p3442
I824
sVcheddar
p3443
I825
sVepcot
p3444
I2560
sVaroma
p3445
I826
sVcollabor
p3446
I4614
sVvietnames
p3447
I2025
sVshape
p3448
I3310
sVamp
p3449
I1768
sVad
p3450
I3596
sVregardless
p3451
I1542
sVstapl
p3452
I2026
sVster
p3453
I2050
sVtin
p3454
I4013
sVsnappi
p3455
I828
sVchaat
p3456
I4615
sVcup
p3457
I3312
sVianc
p3458
I2755
sVcuz
p3459
I3313
sVclaustrophob
p3460
I829
sVeager
p3461
I830
sVgrapefruit
p3462
I831
sVpolit
p3463
I4760
sVcub
p3464
I211
sVtuxedo
p3465
I4616
sVsnap
p3466
I3314
sVtell
p3467
I2428
sVyeasti
p3468
I4223
sVbuild
p3469
I3207
sVsilken
p3470
I3315
sVcornish
p3471
I3316
sVcomplaint
p3472
I2608
sVmarco
p3473
I2028
sVmarch
p3474
I2029
sVethnic
p3475
I4740
sVrigatoni
p3476
I832
sVqueso
p3477
I833
sVbig
p3478
I3318
sVmoodi
p3479
I4617
sVgame
p3480
I2030
sVabound
p3481
I834
sVcrisp
p3482
I2031
sVbit
p3483
I3319
sVfontina
p3484
I4591
sVformal
p3485
I835
sVknock
p3486
I3320
sVleisur
p3487
I836
sVlost
p3488
I2317
sVsemi
p3489
I3321
sVpuck
p3490
I3818
sVconfront
p3491
I4618
sVpillar
p3492
I520
sVappit
p3493
I1771
sVshabu
p3494
I4619
sVchow
p3495
I1787
sVbun
p3496
I3677
sVeel
p3497
I2032
sVarthur
p3498
I4621
sVyorker
p3499
I4622
sVmexi
p3500
I2033
sVpopular
p3501
I2034
sVstylish
p3502
I837
sVbamboo
p3503
I3322
sVpredominantli
p3504
I3853
sVsizeabl
p3505
I3323
sVdownstair
p3506
I3324
sVencount
p3507
I1818
sVassort
p3508
I4148
sVpopov
p3509
I2318
sVoften
p3510
I3325
sVtrendi
p3511
I2035
sVspring
p3512
I838
sVsorbet
p3513
I839
sVback
p3514
I3326
sVphone
p3515
I3748
sVconey
p3516
I2685
sVah
p3517
I3597
sVunderstood
p3518
I4625
sVsampl
p3519
I840
sVsight
p3520
I841
sVmirror
p3521
I3327
sVfalafel
p3522
I3328
sVcurious
p3523
I842
sVserver
p3524
I3008
sVpale
p3525
I843
sVworldli
p3526
I4862
sVchocol
p3527
I2038
sVave
p3528
I4890
sVchoy
p3529
I1788
sVarepa
p3530
I2320
sVper
p3531
I3329
sVsubstitut
p3532
I3330
sVlardo
p3533
I3331
sVlarg
p3534
I3332
sVsimmer
p3535
I2040
sVsaag
p3536
I3333
sVforgett
p3537
I2041
sVgratuiti
p3538
I2042
sVnovelti
p3539
I845
sVpea
p3540
I3334
sVnose
p3541
I3335
sVmachin
p3542
I846
sVjazzi
p3543
I2043
sVbf
p3544
I847
sVstea
p3545
I2044
sVrun
p3546
I2045
sVba
p3547
I849
sVbc
p3548
I850
sVrub
p3549
I2047
sVsalmon
p3550
I3211
sVintellig
p3551
I3499
sVbo
p3552
I851
sVbi
p3553
I852
sVoeu
p3554
I3339
sVbt
p3555
I1230
sVbu
p3556
I853
sVstep
p3557
I2051
sVexplor
p3558
I3135
sVstew
p3559
I2752
sVeveryday
p3560
I2970
sVmetaphor
p3561
I3340
sVfenc
p3562
I2905
sVimpos
p3563
I346
sVvivid
p3564
I4075
sVshine
p3565
I2052
sVsub
p3566
I4381
sVbeefsteak
p3567
I2053
sVwouldnt
p3568
I2772
sVwinelist
p3569
I2054
sVdelish
p3570
I3341
sVshini
p3571
I2055
sVoatmeal
p3572
I3342
sVpage
p3573
I2326
sVdrama
p3574
I3343
sVparma
p3575
I4069
sVcandi
p3576
I2327
sVquintessenti
p3577
I366
sVgoodi
p3578
I3344
sVbouley
p3579
I3345
sVitalian
p3580
I3642
sVmagarita
p3581
I2057
sVblock
p3582
I2058
sVrestuar
p3583
I4518
sVspicier
p3584
I3346
sVhudson
p3585
I2130
sVclinton
p3586
I854
sVprimarili
p3587
I855
sVirrit
p3588
I856
sVturnov
p3589
I4569
sVwithin
p3590
I2060
sVtofu
p3591
I2061
sVcolour
p3592
I3952
sVseamless
p3593
I857
sVpeppercorn
p3594
I3858
sVpepperoni
p3595
I2851
sVfrog
p3596
I4708
sVensur
p3597
I2063
sVlesson
p3598
I3350
sVannounc
p3599
I4637
sVunderst
p3600
I859
sVinconveni
p3601
I4546
sVtastebud
p3602
I2883
sVoccupi
p3603
I860
sVcoin
p3604
I3859
sVspan
p3605
I861
sVcanai
p3606
I4638
sVcarnegi
p3607
I2064
sVbrim
p3608
I4200
sVsock
p3609
I862
sVperki
p3610
I4937
sVamidst
p3611
I1466
sVcustom
p3612
I421
sVadjac
p3613
I4641
sVfeu
p3614
I4709
sVcharg
p3615
I3214
sVsuit
p3616
I863
sVforward
p3617
I3353
sVperform
p3618
I1414
sVamaz
p3619
I4519
sVtradit
p3620
I2543
sVlarri
p3621
I1947
sVrepeatedli
p3622
I4642
sVhawaiian
p3623
I865
sVfilet
p3624
I4643
sVjewish
p3625
I866
sVposter
p3626
I867
sVatop
p3627
I868
sVfrost
p3628
I2069
sVpaneer
p3629
I2070
sVglamour
p3630
I4646
sVmsg
p3631
I4080
sVdulc
p3632
I2071
sVlink
p3633
I869
sVtranslat
p3634
I3354
sVnewer
p3635
I2072
sVrussian
p3636
I2073
sVline
p3637
I462
sVisra
p3638
I2687
sVbutteri
p3639
I870
sVspecialti
p3640
I262
sVbought
p3641
I4848
sVhair
p3642
I3645
sVcoriand
p3643
I3356
sVconsist
p3644
I4650
sVdelect
p3645
I3732
sVrestaraunt
p3646
I3357
sVuw
p3647
I871
sVup
p3648
I872
sVus
p3649
I873
sVur
p3650
I874
sVintim
p3651
I474
sVtapenad
p3652
I4652
sVun
p3653
I875
sVtoday
p3654
I4083
sVflor
p3655
I3862
sVue
p3656
I876
sVhighlight
p3657
I4653
sVz
I4654
sVchelsea
p3658
I2075
sVyakitori
p3659
I2076
sVbath
p3660
I4118
sVuber
p3661
I2077
sVsteakhous
p3662
I3433
sVdeafen
p3663
I2869
sVconstant
p3664
I3363
sVcurs
p3665
I3364
sVproceed
p3666
I4400
sVmetal
p3667
I3863
sVchai
p3668
I877
sVstrand
p3669
I3786
sVhaunt
p3670
I878
sVrepres
p3671
I2078
sVchar
p3672
I879
sVcurd
p3673
I3366
sVcure
p3674
I3367
sVmeatpack
p3675
I4210
sVchat
p3676
I880
sVguarante
p3677
I2079
sVcaff
p3678
I3368
sVsuccul
p3679
I2821
sVfussi
p3680
I1350
sVpromenad
p3681
I2080
sVrainbow
p3682
I4658
sVmeatloaf
p3683
I4923
sVtaro
p3684
I881
sVsunken
p3685
I882
sVpronounc
p3686
I2081
sVhint
p3687
I4273
sVhandmad
p3688
I1823
sVscrape
p3689
I883
sVexud
p3690
I884
sVclub
p3691
I1550
sVparlor
p3692
I2384
sVlibrari
p3693
I2334
sVgra
p3694
I4665
sVswirl
p3695
I885
sVmanhattan
p3696
I2082
sVmock
p3697
I4666
sVtart
p3698
I886
sVvivaci
p3699
I2083
sVcellar
p3700
I3370
sVgf
p3701
I3086
sVtongu
p3702
I2084
sVutterli
p3703
I3371
sVgross
p3704
I3013
sVpuddl
p3705
I4956
sVsublim
p3706
I3583
sVpapa
p3707
I3373
sVdrag
p3708
I2085
sVcater
p3709
I3374
sVlunch
p3710
I2822
sVleaf
p3711
I4924
sVclue
p3712
I1551
sVfaintli
p3713
I888
sVdesert
p3714
I3375
sVdeserv
p3715
I3376
sVago
p3716
I889
sVwonton
p3717
I4669
sVlane
p3718
I890
sVland
p3719
I891
sVe
I2087
sVlead
p3720
I4925
sVwafer
p3721
I892
sVage
p3722
I893
sVconfirm
p3723
I3014
sVdaikon
p3724
I3377
sVraucou
p3725
I4671
sVdot
p3726
I2548
sVleak
p3727
I4926
sVseawe
p3728
I894
sVfresh
p3729
I895
sVdover
p3730
I2992
sVconvert
p3731
I2116
sVhello
p3732
I896
sVhampton
p3733
I897
sVcode
p3734
I898
sVpartial
p3735
I899
sVedg
p3736
I4673
sVsplurg
p3737
I595
sVscratch
p3738
I901
sVatmosher
p3739
I4674
sVmunchi
p3740
I1749
sVmayonnais
p3741
I3379
sVsoften
p3742
I902
sVsteve
p3743
I2787
sVkati
p3744
I2089
sVrenown
p3745
I903
sVgang
p3746
I4675
sVga
p3747
I2090
sVgo
p3748
I2109
sVgossip
p3749
I1195
sVanniversari
p3750
I4391
sVmoon
p3751
I4295
sVlyche
p3752
I3380
sVencrust
p3753
I904
sVculinari
p3754
I2091
sVprivat
p3755
I3381
sVsecur
p3756
I4105
sVturkish
p3757
I905
sVeffort
p3758
I2770
sVelsewher
p3759
I3383
sVyoung
p3760
I906
sVsend
p3761
I907
sVshack
p3762
I2094
sVbecam
p3763
I3385
sVvisitor
p3764
I2550
sVsens
p3765
I908
sVairplan
p3766
I2095
sVwomen
p3767
I4718
sVcornelia
p3768
I3091
sVpric
p3769
I3756
sVsent
p3770
I910
sVannoy
p3771
I4719
sVrandom
p3772
I3387
sVgarden
p3773
I911
sVsausag
p3774
I2096
sVdessert
p3775
I3388
sVcinnamon
p3776
I4062
sVaromat
p3777
I3419
sVwave
p3778
I2097
sVspoon
p3779
I4678
sValik
p3780
I3439
sVvolum
p3781
I3389
sVfreind
p3782
I670
sVuntouch
p3783
I3390
sVwipe
p3784
I913
sVrecip
p3785
I914
sVrecit
p3786
I678
sVsucceed
p3787
I4557
sVstiff
p3788
I2098
sVcomplic
p3789
I4298
sVmcnugget
p3790
I916
sVshock
p3791
I3392
sVtre
p3792
I917
sVeve
p3793
I918
sVlombardi
p3794
I687
sVoverli
p3795
I3393
sVqueen
p3796
I3866
sVridg
p3797
I2138
sVknife
p3798
I3017
sVgabriel
p3799
I3442
sVparticularli
p3800
I3219
sVmarri
p3801
I920
sVrack
p3802
I921
sVcrme
p3803
I3220
sVpleas
p3804
I4680
sVimpli
p3805
I922
sVcap
p3806
I1555
sVfortun
p3807
I3398
sVmeticul
p3808
I2104
sVrim
p3809
I4594
sVpaid
p3810
I2888
sVnatur
p3811
I923
sVmediterranean
p3812
I924
sVencourag
p3813
I2338
sVcrop
p3814
I1478
sVsoul
p3815
I2106
sVjump
p3816
I2107
sVfold
p3817
I4683
sVvideo
p3818
I3783
sVbooth
p3819
I2108
sVfraich
p3820
I3869
sVspaghetti
p3821
I728
sVfolk
p3822
I4685
sVfli
p3823
I2777
sVturn
p3824
I4132
sVchock
p3825
I3221
sVsauerkraut
p3826
I928
sVjunior
p3827
I2908
sVsoup
p3828
I2778
sVfine
p3829
I3222
sVunderseason
p3830
I2111
sVslight
p3831
I3651
sVsangria
p3832
I2113
sVcell
p3833
I2316
sVsqueez
p3834
I4630
sVindian
p3835
I929
sVjuggl
p3836
I4688
sVkyoto
p3837
I3020
sVobvious
p3838
I3445
sVcarbonara
p3839
I4689
sVoversalt
p3840
I4768
sVdissapoint
p3841
I930
sVbird
p3842
I931
sVcan
p3843
I1558
sVnacho
p3844
I3409
sVcaper
p3845
I152
sVdownright
p3846
I2470
sVled
p3847
I932
sVchose
p3848
I4690
sVlef
p3849
I933
sVurchin
p3850
I773
sVsexi
p3851
I4691
sVkangaroo
p3852
I4692
sVpunch
p3853
I935
sVsceneri
p3854
I776
sVyuzu
p3855
I2114
sVsuddenli
p3856
I4399
sVlet
p3857
I936
sVsink
p3858
I3412
sVeuro
p3859
I117
sVtownhous
p3860
I3470
sVsing
p3861
I3413
sVbecom
p3862
I2115
sVfifteen
p3863
I937
sVsinc
p3864
I3414
sVvinegar
p3865
I938
sVgreat
p3866
I939
sVpurpos
p3867
I4089
sVtalent
p3868
I3416
sVgreas
p3869
I940
sVemuls
p3870
I3417
sVconceiv
p3871
I3418
sVlarger
p3872
I4695
sVvacat
p3873
I2118
sVhost
p3874
I3655
sVscatter
p3875
I941
sVspicey
p3876
I4697
sVlight
p3877
I4743
sVweekday
p3878
I3420
sVbuckwheat
p3879
I2120
sVpopcorn
p3880
I943
sVopinion
p3881
I986
sVchang
p3882
I2121
sVchana
p3883
I2122
sVmaker
p3884
I945
sVchanc
p3885
I2123
sVemploye
p3886
I3449
sValtho
p3887
I827
sVclaim
p3888
I2781
sVnewbi
p3889
I4700
sVwin
p3890
I2124
sVlimp
p3891
I3423
sVceasar
p3892
I2125
sVapt
p3893
I4703
sVexpect
p3894
I4458
sVpasta
p3895
I4933
sVran
p3896
I3845
sVwit
p3897
I2127
sVnorm
p3898
I4018
sVuniqu
p3899
I2776
sVbeckon
p3900
I3424
sVlima
p3901
I3425
sVegg
p3902
I1877
sVcloud
p3903
I2128
sVlime
p3904
I3426
sVcha
p3905
I3427
sVuse
p3906
I3338
sVfee
p3907
I4707
sVcrap
p3908
I2129
sVpatron
p3909
I4721
sVmahogani
p3910
I3795
sVcommun
p3911
I946
sVchi
p3912
I3429
sVdoubl
p3913
I947
sVupgrad
p3914
I948
sVined
p3915
I3348
sVnext
p3916
I858
sVwebsit
p3917
I3431
sVeleven
p3918
I950
sVdoubt
p3919
I951
sVcrab
p3920
I2131
sVpeach
p3921
I4660
sVoverbear
p3922
I3432
sVcram
p3923
I2132
sVhug
p3924
I4152
sVpanel
p3925
I2133
sVcommut
p3926
I953
sVbelgian
p3927
I3360
sVcosmo
p3928
I2134
sVcharcoal
p3929
I3434
sVdash
p3930
I2876
sVclever
p3931
I4711
sVpolenta
p3932
I2555
sVporch
p3933
I4712
sVbabi
p3934
I954
sVgladli
p3935
I955
sVmusician
p3936
I4713
sVmismatch
p3937
I2135
sVflaki
p3938
I3658
sVastoria
p3939
I3435
sVliberti
p3940
I4716
sVsofa
p3941
I4705
sVtrain
p3942
I3436
sVpopper
p3943
I2136
sVrabbit
p3944
I4717
sVgamba
p3945
I956
sVok
p3946
I4301
sVstarter
p3947
I2137
sVoj
p3948
I4302
sVdeclin
p3949
I3106
sVtad
p3950
I4724
sVaccount
p3951
I3438
sVrice
p3952
I160
sVsalad
p3953
I3391
sVf
I3440
sVtunnel
p3954
I919
sVchianti
p3955
I2139
sVride
p3956
I2140
sVoh
p3957
I4303
sVrenov
p3958
I3402
sVpour
p3959
I958
sVdonut
p3960
I2141
sVunreal
p3961
I3444
sVdous
p3962
I2485
sVthin
p3963
I959
sVmeet
p3964
I2143
sVbouncer
p3965
I4608
sVdidnt
p3966
I3447
sVpeke
p3967
I960
sValiv
p3968
I3448
sVcontrol
p3969
I2144
sVtap
p3970
I4720
sVbent
p3971
I961
sVtar
p3972
I3428
sVdo
p3973
I1359
sVprocess
p3974
I962
sS'lock'
p3975
I963
sVslim
p3976
I964
sVtax
p3977
I4722
sVtay
p3978
I4723
sVdanni
p3979
I3771
sVhigh
p3980
I965
sVcarrot
p3981
I4725
sVdownhil
p3982
I3451
sVslip
p3983
I966
sVonlin
p3984
I967
sVtan
p3985
I4728
sVflamenco
p3986
I968
sVskirt
p3987
I2146
sVtai
p3988
I4730
sVhangar
p3989
I3452
sVlamb
p3990
I972
sVsir
p3991
I3462
sVdispleasur
p3992
I2147
sVpermeat
p3993
I2148
sVstellar
p3994
I3654
sVfriendlier
p3995
I2149
sVrhubarb
p3996
I969
sVvibe
p3997
I2150
sVaficionado
p3998
I4530
sVwilliamsburg
p3999
I3456
sVnoisey
p4000
I3457
sVgeorg
p4001
I2151
sVdelay
p4002
I970
sVbrian
p4003
I4734
sVlamp
p4004
I3458
sVswear
p4005
I4941
sVforest
p4006
I3459
sVfeta
p4007
I996
sVinstead
p4008
I4735
sVmedium
p4009
I3987
sVsin
p4010
I4736
sVchri
p4011
I4817
sVcircular
p4012
I2152
sVfare
p4013
I2153
sVpink
p4014
I2786
sVfinanc
p4015
I3394
sVfara
p4016
I2155
sVriver
p4017
I4773
sVattend
p4018
I4737
sVfarm
p4019
I2156
sVwatch
p4020
I3877
sVawait
p4021
I973
sVsurfac
p4022
I3454
sVwateri
p4023
I3464
sVfrat
p4024
I3465
sVupscal
p4025
I4738
sVattent
p4026
I4739
sVtaco
p4027
I1025
sVtier
p4028
I974
sVshumai
p4029
I975
sVindustri
p4030
I550
sVphysic
p4031
I3467
sVtomato
p4032
I977
sVvillag
p4033
I4741
sVbakeri
p4034
I2157
sVdrape
p4035
I3468
sVessenti
p4036
I978
sVclassi
p4037
I979
sVseriou
p4038
I980
sVconduc
p4039
I1048
sVcounter
p4040
I981
sVolli
p4041
I4903
sVelement
p4042
I982
sVissu
p4043
I983
sVscoop
p4044
I2159
sVunaccept
p4045
I984
sVallow
p4046
I985
sVcolada
p4047
I4744
sVcattl
p4048
I4561
sVlobbi
p4049
I4467
sVhipster
p4050
I3577
sVmartini
p4051
I4745
sVfurnish
p4052
I3472
sVbreast
p4053
I3232
sVhouston
p4054
I987
sVchopstick
p4055
I4240
sVleast
p4056
I3188
sVmovi
p4057
I988
sVmove
p4058
I989
sVimperson
p4059
I3473
sVcitysearch
p4060
I2161
sVscrumptiou
p4061
I3474
sVmojito
p4062
I4747
sVown
p4063
I4944
sVsoggi
p4064
I2162
sVpine
p4065
I2789
sVaustrian
p4066
I3475
sVbutternut
p4067
I3476
sVbunch
p4068
I3477
sVperfect
p4069
I990
sVtso
p4070
I3478
sVsilk
p4071
I3234
sVouter
p4072
I2163
sVregga
p4073
I1375
sVtill
p4074
I2791
sVchosen
p4075
I991
sVlo
p4076
I3482
sVbrook
p4077
I2164
sVchutney
p4078
I167
sVmental
p4079
I3166
sVlu
p4080
I3484
sVrabe
p4081
I3485
sVrecreat
p4082
I4122
sVricotta
p4083
I4751
sVdecad
p4084
I993
sVtherefor
p4085
I994
sVhealth
p4086
I4461
sVjukebox
p4087
I4753
sVfourth
p4088
I4097
sVdad
p4089
I3486
sVrecept
p4090
I1123
sVbaguett
p4091
I3487
sVusua
p4092
I2817
sVlegendari
p4093
I997
sVhandl
p4094
I2166
sVwolfgang
p4095
I3615
sVdan
p4096
I3488
sVoveral
p4097
I998
sVswordfish
p4098
I3489
sVcamino
p4099
I2167
sVdat
p4100
I3490
sVmention
p4101
I3491
sVautomat
p4102
I4946
sVkiss
p4103
I1001
sVfront
p4104
I2168
sVcombo
p4105
I4823
sVnnais
p4106
I3492
sVday
p4107
I3493
sVgreasi
p4108
I2497
sVstrive
p4109
I3494
sVminimalist
p4110
I1002
sVsomewher
p4111
I2170
sVthrill
p4112
I3495
sVanyth
p4113
I1003
sVunlimit
p4114
I2700
sVcheesecak
p4115
I4758
sVpappardel
p4116
I4644
sVquietli
p4117
I3026
sVslide
p4118
I2172
sVweather
p4119
I4947
sVhanger
p4120
I3793
sVtrap
p4121
I3650
sVfrittata
p4122
I1004
sVflay
p4123
I4408
sVbeneath
p4124
I1005
sVstock
p4125
I3460
sVtray
p4126
I4761
sVflair
p4127
I3497
sVunwind
p4128
I2174
sVsilverwar
p4129
I2175
sVtot
p4130
I3827
sVcollect
p4131
I4620
sVbump
p4132
I1006
sVtimeless
p4133
I4533
sVcourteou
p4134
I1178
sVoccass
p4135
I4098
sVconsum
p4136
I4359
sVdrizzl
p4137
I2179
sVbrittl
p4138
I3684
sVlentil
p4139
I3500
sVmorton
p4140
I2180
sVarray
p4141
I4141
sVspaciou
p4142
I1009
sVspecial
p4143
I2181
sVeveryon
p4144
I3288
sVtagin
p4145
I4763
sVwhitefish
p4146
I3881
sVnick
p4147
I4663
sVlukewarm
p4148
I2182
sVcleanli
p4149
I3502
sVinfluenc
p4150
I2183
sVcheeseburg
p4151
I3503
sVseason
p4152
I4153
sVcategori
p4153
I4766
sVcardamom
p4154
I3463
sVtrulli
p4155
I1010
sVstuf
p4156
I3504
sVsuitabl
p4157
I2184
sVrel
p4158
I1205
sVcalib
p4159
I2185
sVwich
p4160
I2186
sVweeknight
p4161
I4316
sVstun
p4162
I3506
sVdefens
p4163
I1541
sVred
p4164
I3507
sVree
p4165
I348
sVlob
p4166
I1794
sVshut
p4167
I1012
sVumbrella
p4168
I2188
sVinsid
p4169
I3510
sVsouthern
p4170
I1576
sVbronx
p4171
I4860
sVtempl
p4172
I1013
sVwhilst
p4173
I4746
sVsalami
p4174
I3512
sVjacqu
p4175
I3513
sVque
p4176
I3514
sVyork
p4177
I4770
sVvieja
p4178
I3515
sVtempt
p4179
I1014
sVembarrass
p4180
I1015
sVganach
p4181
I4771
sVafterward
p4182
I3516
sVblow
p4183
I4270
sVchilli
p4184
I1016
sVnowher
p4185
I1216
sVarchitectur
p4186
I3056
sVg
I4774
sVspill
p4187
I1017
sVenchant
p4188
I2568
sVcould
p4189
I1018
sVpictur
p4190
I3669
sVdavid
p4191
I1019
sVcounterpart
p4192
I2192
sVscari
p4193
I1020
sVlength
p4194
I1021
sVshred
p4195
I2194
sVoutsid
p4196
I1022
sVpresid
p4197
I2239
sVretain
p4198
I3518
sVretail
p4199
I3519
sVaustin
p4200
I2195
sVscare
p4201
I1023
sVscarf
p4202
I1274
sVveggi
p4203
I1024
sVmiser
p4204
I4694
sVrespond
p4205
I2204
sVfinest
p4206
I3521
sVblown
p4207
I1026
sVcevich
p4208
I4776
sVfranki
p4209
I3522
sVqualiti
p4210
I2197
sVscene
p4211
I1027
sVecho
p4212
I4777
sVmai
p4213
I2803
sVrespit
p4214
I3523
sVlol
p4215
I1797
sVowner
p4216
I1029
sVconge
p4217
I2200
sVying
p4218
I1030
sVscent
p4219
I1306
sVtablecloth
p4220
I2201
sVprioriti
p4221
I4779
sVphilosophi
p4222
I1158
sVsmaller
p4223
I4681
sVmonkey
p4224
I3525
sVtouristi
p4225
I2203
sVhunt
p4226
I3954
sVlicens
p4227
I1033
sVperfectli
p4228
I2205
sVaccent
p4229
I4780
sVsystem
p4230
I1322
sVwrapper
p4231
I2206
sVcrave
p4232
I2396
sVschnitzel
p4233
I1035
sVsumatra
p4234
I1402
sVappl
p4235
I4950
sVsadli
p4236
I3528
sVbartend
p4237
I1036
sVtermin
p4238
I1037
sVpancak
p4239
I4783
sVman
p4240
I2209
sVunbear
p4241
I1038
sVboil
p4242
I4784
sVbeard
p4243
I2211
sVshell
p4244
I4785
sVstomach
p4245
I1039
sVgear
p4246
I3530
sVshallot
p4247
I4787
sVfuzzi
p4248
I2213
sVdetail
p4249
I3695
sVhassl
p4250
I3672
sVgummi
p4251
I1041
sVkaraok
p4252
I3531
sVaccompani
p4253
I1352
sVtuscan
p4254
I1042
sVhonestli
p4255
I4742
sVexactli
p4256
I2214
sVhen
p4257
I560
sVpractic
p4258
I4102
sVsteel
p4259
I1044
sVphotograph
p4260
I2216
sVslack
p4261
I1367
sVbother
p4262
I1045
sVroberto
p4263
I1046
sVbeg
p4264
I2217
sVbed
p4265
I2218
sVbee
p4266
I2219
sVlover
p4267
I3535
sVbare
p4268
I4539
sVindia
p4269
I1249
sVrate
p4270
I4378
sVsteep
p4271
I1047
sVbing
p4272
I3469
sVsteer
p4273
I1049
sVresult
p4274
I178
sVexhibit
p4275
I2222
sVunapologet
p4276
I2897
sVpesto
p4277
I3160
sVrecommen
p4278
I4540
sVclip
p4279
I4794
sVterribl
p4280
I1051
sVbeefi
p4281
I2223
sVclearli
p4282
I1052
sVtonight
p4283
I1053
sVmacaroni
p4284
I4245
sVresembl
p4285
I3407
sVcavern
p4286
I1409
sVlightli
p4287
I2224
sVtabl
p4288
I2225
sVneed
p4289
I2226
sVnorth
p4290
I2351
sVserrano
p4291
I1054
sVborder
p4292
I2227
sVgentli
p4293
I1055
sVarezzo
p4294
I4797
sVsedat
p4295
I3542
sVscrew
p4296
I2228
sVclove
p4297
I4799
sVdepict
p4298
I1141
sVsevich
p4299
I3536
sVsmallest
p4300
I3246
sVsoak
p4301
I1056
sVlinen
p4302
I3471
sVmia
p4303
I3538
sVforgotten
p4304
I2302
sVswitch
p4305
I2807
sVmig
p4306
I3540
sVarm
p4307
I4543
sVbagel
p4308
I3942
sVsinatra
p4309
I1057
sVsh
p4310
I696
sVindic
p4311
I2769
sVsirlion
p4312
I2230
sVcubano
p4313
I4142
sVkorean
p4314
I1058
sVlatino
p4315
I1059
sVsoap
p4316
I1060
sVsingl
p4317
I2232
sVsoar
p4318
I1061
sVcourtesi
p4319
I1062
sVenerget
p4320
I2235
sVsol
p4321
I1599
sVdissappoint
p4322
I2236
sVawar
p4323
I3544
sVsuprisingli
p4324
I3545
sVafrican
p4325
I2808
sVgalleri
p4326
I2237
sVdiscov
p4327
I2238
sVmimosa
p4328
I2240
sVawn
p4329
I2241
sVeight
p4330
I3546
sVsix
p4331
I4733
sVtrendier
p4332
I3547
sVawe
p4333
I2242
sVtranc
p4334
I3548
sVclass
p4335
I4807
sVbachelorett
p4336
I4808
sVstereo
p4337
I2243
sVprickli
p4338
I2244
sVnazi
p4339
I1776
sVparisian
p4340
I1064
sValaskan
p4341
I3549
sVgather
p4342
I3550
sVupset
p4343
I2245
sVcasserol
p4344
I1065
sVface
p4345
I1066
sVinde
p4346
I2247
sVdeni
p4347
I4813
sVsoprano
p4348
I4322
sVmichel
p4349
I1583
sVdetermin
p4350
I4814
sVbrew
p4351
I1067
sVoccasion
p4352
I3553
sVhardcor
p4353
I3554
sVmerguez
p4354
I4587
sVsometh
p4355
I3245
sVfact
p4356
I1068
sVaffair
p4357
I2248
sVgrandmoth
p4358
I1980
sVnutrit
p4359
I1069
sVremodel
p4360
I4512
sVindoor
p4361
I2249
sVhollandais
p4362
I1508
sVbrother
p4363
I4457
sVbring
p4364
I1070
sVbrine
p4365
I1071
sVirv
p4366
I183
sVempir
p4367
I3556
sVfile
p4368
I3045
sVrough
p4369
I1526
sVdiscoveri
p4370
I3557
sVtexa
p4371
I3558
sVthicker
p4372
I3559
sVsamosa
p4373
I2251
sVbrini
p4374
I1073
sVanswer
p4375
I2448
sVfootbal
p4376
I1074
sVsatay
p4377
I3561
sVnoir
p4378
I1535
sVnois
p4379
I1075
sVtire
p4380
I2252
sVwinner
p4381
I2253
sVjar
p4382
I1076
sVbrighten
p4383
I1796
sVtapa
p4384
I1078
sVbrighter
p4385
I2255
sVgestur
p4386
I1079
sVjam
p4387
I1080
sVsuppos
p4388
I1081
sVesqu
p4389
I3032
sVintrigu
p4390
I1082
sVfuel
p4391
I2256
sVbourbon
p4392
I1552
sVbattl
p4393
I4682
sVhope
p4394
I1083
sVmeant
p4395
I1084
sVcube
p4396
I4828
sVcontribut
p4397
I4829
sVsatisfact
p4398
I1085
sVfellow
p4399
I3043
sVfamiliar
p4400
I1086
sVdisagre
p4401
I3564
sVhire
p4402
I1808
sVargentin
p4403
I1087
sVregularli
p4404
I3567
sVjoint
p4405
I2257
sVbean
p4406
I3569
sVdisappointingli
p4407
I1088
sVbead
p4408
I2426
sVjicama
p4409
I3572
sVcranki
p4410
I1089
sVlucki
p4411
I1090
sVtheatr
p4412
I4831
sVendless
p4413
I2259
sVwallpap
p4414
I4833
sVsmash
p4415
I1091
sVlalo
p4416
I1092
sVmundan
p4417
I4834
sVorgan
p4418
I3573
sVtwice
p4419
I3882
sVcountrysid
p4420
I2261
sVh
I1093
sVamex
p4421
I4851
sVelsewh
p4422
I2262
sVsummon
p4423
I1094
sVschlag
p4424
I3574
sVwhether
p4425
I4958
sVstuff
p4426
I1095
sVcontain
p4427
I2263
sVswath
p4428
I4664
sVshi
p4429
I2264
sVgrab
p4430
I2265
sVview
p4431
I4837
sVtoe
p4432
I3832
sVnoodl
p4433
I1096
sVclubhous
p4434
I4146
sVhardwood
p4435
I2266
sVhorrend
p4436
I3575
sVframe
p4437
I1097
sVknowledg
p4438
I4838
sVstud
p4439
I3505
sVapolog
p4440
I3576
sVjoin
p4441
I3752
sVtowner
p4442
I3880
sVdalla
p4443
I1983
sVchuck
p4444
I3791
sVpowder
p4445
I2267
sVkimche
p4446
I4840
sVmistak
p4447
I4566
sVartsi
p4448
I4841
sVappreci
p4449
I3251
sVcloser
p4450
I4172
sVthali
p4451
I4842
sVstatu
p4452
I2268
sVcole
p4453
I4843
sVancho
p4454
I2576
sVcorrectli
p4455
I2269
sVlux
p4456
I2270
sVpattern
p4457
I3580
sVcours
p4458
I4422
sVcomplai
p4459
I3581
sVtend
p4460
I2271
sVicecream
p4461
I3582
sVwritten
p4462
I2272
sVborscht
p4463
I1098
sVlimit
p4464
I3290
sVneither
p4465
I2273
sVyoull
p4466
I1099
sVsold
p4467
I4553
sVmidnight
p4468
I4110
sVtent
p4469
I2274
sVverifi
p4470
I2823
sVentic
p4471
I4849
sVsuperior
p4472
I4748
sVweak
p4473
I3895
sVkee
p4474
I2275
sVragu
p4475
I568
sVdislik
p4476
I1100
sVcourtyard
p4477
I1101
sVshanghai
p4478
I4676
sVjob
p4479
I4852
sVle
p4480
I3479
sVchorizo
p4481
I2984
sVkey
p4482
I2276
sVgroup
p4483
I2815
sVstucco
p4484
I4856
sVthank
p4485
I2816
sVdisgruntl
p4486
I4228
sVinstant
p4487
I3585
sVsoutheast
p4488
I3897
sVcareer
p4489
I2277
sVjoke
p4490
I3586
sVobtrus
p4491
I4531
sVla
p4492
I3481
sVramp
p4493
I1102
sVwu
p4494
I1380
sVensu
p4495
I4415
sVkosher
p4496
I3588
sVetc
p4497
I1104
sVdoorway
p4498
I1105
sVtater
p4499
I1737
sVsesam
p4500
I2279
sVami
p4501
I2280
sVpuff
p4502
I1106
sVdarker
p4503
I570
sVeponym
p4504
I4558
sVafraid
p4505
I4800
sVjersey
p4506
I2281
sVcomment
p4507
I1751
sVenglish
p4508
I4902
sVco
p4509
I1107
sVyuppi
p4510
I3594
sVwall
p4511
I4863
sVlech
p4512
I4749
sVca
p4513
I1109
sVrather
p4514
I4425
sVarriv
p4515
I4864
sVwalk
p4516
I4865
sVarugula
p4517
I1110
sVgramerci
p4518
I3255
sVcrappi
p4519
I4880
sVsimplist
p4520
I4499
sVoregano
p4521
I1111
sVcousin
p4522
I2577
sVrespect
p4523
I4866
sVwalnut
p4524
I2165
sVtabla
p4525
I4867
sVaccomid
p4526
I1777
sVshitak
p4527
I2284
sVquit
p4528
I2285
sVslowli
p4529
I2286
sVavacado
p4530
I4326
sVdecent
p4531
I4868
sVcompot
p4532
I4869
sVpio
p4533
I3685
sVtrademark
p4534
I4870
sVcompos
p4535
I4871
sVcent
p4536
I2287
sVshame
p4537
I2609
sVdrank
p4538
I1112
sVbesid
p4539
I4872
sVtreat
p4540
I2288
sVelectr
p4541
I1802
sVpoet
p4542
I2289
sVcurtain
p4543
I1807
sVhottest
p4544
I1869
sVimmedi
p4545
I1113
sVlouisiana
p4546
I1114
sVnquet
p4547
I4964
sVbbq
p4548
I4873
sVfield
p4549
I3054
sVcotta
p4550
I4750
sVpresenc
p4551
I4875
sVmakhani
p4552
I4335
sVray
p4553
I3849
sVhmm
p4554
I4877
sVacoust
p4555
I3900
sVtogeth
p4556
I1115
sVhamburg
p4557
I2290
sVador
p4558
I1116
sVfurnitur
p4559
I2291
sVbrunch
p4560
I2292
sVnerv
p4561
I1812
sVspain
p4562
I1117
sVmildli
p4563
I3901
sVoctopu
p4564
I4129
sVingredi
p4565
I4645
sVmulti
p4566
I3601
sVmain
p4567
I2819
sVbasket
p4568
I2809
sVwilt
p4569
I4881
sVplain
p4570
I3602
sVvanilla
p4571
I4882
sVhomey
p4572
I3603
sVharder
p4573
I2293
sVfocaccia
p4574
I3946
sVuncomfort
p4575
I3235
sVwill
p4576
I4884
sVdefin
p4577
I3605
sVcornmeal
p4578
I1810
sVounc
p4579
I1118
sVdecept
p4580
I1119
sVwild
p4581
I4885
sVultra
p4582
I1120
sVill
p4583
I3606
sVpanna
p4584
I1784
sVlayer
p4585
I4887
sVpurchas
p4586
I1121
sVconclus
p4587
I3607
sVengag
p4588
I2294
sVripe
p4589
I1122
sValmost
p4590
I1855
sVne
p4591
I4010
sVsherri
p4592
I4513
sVsquid
p4593
I3610
sVlush
p4594
I1124
sVsite
p4595
I1125
sVwife
p4596
I4340
sVvs
p4597
I1126
sVsubstanti
p4598
I3611
sVpartner
p4599
I3612
sVforeign
p4600
I3261
sVsurprisingli
p4601
I1127
sVbrac
p4602
I1387
sVpresent
p4603
I4879
sVwelcom
p4604
I2297
sVjapanes
p4605
I3614
sVadjoin
p4606
I4213
sVparti
p4607
I2298
sVbegan
p4608
I304
sVcross
p4609
I4437
sVmember
p4610
I4891
sVwhenev
p4611
I4500
sVspeaker
p4612
I2299
sVfilm
p4613
I3049
sVflour
p4614
I4754
sVinch
p4615
I4892
sVfill
p4616
I3050
sVot
p4617
I4309
sVnightli
p4618
I2300
sVcompetit
p4619
I1128
sVprais
p4620
I3617
sVball
p4621
I1129
sVpho
p4622
I1130
sValot
p4623
I3262
sVappetis
p4624
I4017
sVexpans
p4625
I1131
sVdrink
p4626
I1132
sVupon
p4627
I1133
sVeffect
p4628
I2303
sVcoffe
p4629
I1134
sVpleasantli
p4630
I1135
sVlone
p4631
I4639
sViniti
p4632
I2304
sVstudent
p4633
I4895
sVuni
p4634
I2581
sVdust
p4635
I1136
sVdivin
p4636
I4426
sVafghan
p4637
I1137
sVbroccoli
p4638
I1929
sVexpand
p4639
I1138
sVsouth
p4640
I4686
sVexceedingli
p4641
I3619
sVantipasta
p4642
I4897
sVcenter
p4643
I3620
sVceleri
p4644
I2551
sVnevertheless
p4645
I3621
sVcom
p4646
I3622
sVproscuitto
p4647
I1139
sVcontest
p4648
I2364
sVwell
p4649
I2305
sVoverwork
p4650
I4901
sVthought
p4651
I3623
sVlikewis
p4652
I3461
sVexampl
p4653
I1140
sVchoos
p4654
I3625
sVtalk
p4655
I2811
sVrush
p4656
I3565
sVlatest
p4657
I1961
sVny
p4658
I4012
sVdistanc
p4659
I2306
sVcoaster
p4660
I3627
sVflesh
p4661
I1142
sVbuttermilk
p4662
I4576
sVdosa
p4663
I2307
sVdisinterest
p4664
I2308
sVroomi
p4665
I1143
sVcherri
p4666
I3920
sVsurpass
p4667
I3628
sVheavili
p4668
I4904
sVincreasingli
p4669
I2310
sVtone
p4670
I3629
sVpaul
p4671
I1144
sVadv
p4672
I3630
sVweb
p4673
I1145
sVwed
p4674
I1146
sVfarmhous
p4675
I1993
sVsky
p4676
I4876
sVdiscuss
p4677
I1602
sVknish
p4678
I2313
sVsullivan
p4679
I3905
sVadd
p4680
I3632
sVbook
p4681
I4908
sVtroubl
p4682
I4959
sVwet
p4683
I1147
sVchees
p4684
I4610
sVcompet
p4685
I4333
sVsmart
p4686
I3633
sVteriyaki
p4687
I1148
sVmatch
p4688
I2006
sVfutur
p4689
I2366
sVroyalti
p4690
I3634
sVbranch
p4691
I4969
sVbilli
p4692
I4756
sVhaut
p4693
I1149
sVpiec
p4694
I1150
sVsweep
p4695
I4565
sVpunctuat
p4696
I3635
sVrealiz
p4697
I3636
sVfive
p4698
I1151
sVknow
p4699
I4910
sVdesk
p4700
I1152
sVpress
p4701
I4911
sVnutti
p4702
I4286
sVdoughnut
p4703
I4912
sVhollow
p4704
I4913
sVthrong
p4705
I4715
sVnue
p4706
I3889
sVname
p4707
I4120
sVinstitut
p4708
I4914
sVmouthwat
p4709
I4970
sVresid
p4710
I1153
sVlike
p4711
I3637
sVonion
p4712
I1154
sVincred
p4713
I4915
sVmiami
p4714
I4916
sVcorpor
p4715
I1155
sVrisotto
p4716
I2171
sVroti
p4717
I2319
sVcutlet
p4718
I4917
sVarmani
p4719
I2039
sVnecessari
p4720
I2321
sVgarlicki
p4721
I1156
sVlose
p4722
I2322
sVtablesid
p4723
I2323
sVchick
p4724
I3640
sVmeltingli
p4725
I2324
sVcandl
p4726
I2325
sVsoft
p4727
I3641
sVsourdough
p4728
I1157
sVheel
p4729
I2056
sVcusin
p4730
I1159
sVexceed
p4731
I4918
sVglare
p4732
I2328
sVcaptur
p4733
I2065
sVfeast
p4734
I4759
sVclientel
p4735
I1160
sVchurch
p4736
I4920
sVstuffi
p4737
I3643
sVhail
p4738
I3644
sVhush
p4739
I2329
sVcake
p4740
I4962
sVfrancisco
p4741
I3618
sVwarmer
p4742
I2331
sVshabbi
p4743
I4921
sVflush
p4744
I1161
sVproper
p4745
I3646
sVthier
p4746
I1162
sVpeter
p4747
I2333
sVtransport
p4748
I1163
sVshrug
p4749
I3647
sVtrust
p4750
I3907
sVess
p4751
I3648
sVbet
p4752
I2221
sVjalapeno
p4753
I472
sVesp
p4754
I3649
sVbroad
p4755
I2335
sVavoid
p4756
I1164
sVcondens
p4757
I3058
sVlean
p4758
I4927
sVfanni
p4759
I2336
sVfloral
p4760
I4101
sVfountain
p4761
I2337
sVpassion
p4762
I1165
sVsettl
p4763
I4929
sVethiopian
p4764
I4068
sVunfamiliar
p4765
I4036
sVforgiven
p4766
I1167
sVspaetzl
p4767
I4360
sVyukon
p4768
I1994
sVda
p4769
I3466
sVpompou
p4770
I4930
sVtrout
p4771
I4931
sVreciev
p4772
I2586
sVpepper
p4773
I2105
sVworthi
p4774
I2112
sVsnapper
p4775
I3652
sVnoisi
p4776
I3653
sVspeacial
p4777
I2339
sVthinli
p4778
I2119
sVforgiv
p4779
I1995
sValthough
p4780
I3656
sVoffset
p4781
I2340
sVcutter
p4782
I4115
sVterra
p4783
I3657
sVkitsch
p4784
I4934
sVosteria
p4785
I1168
sVstage
p4786
I1169
sVcontinu
p4787
I2829
sVvitello
p4788
I2419
sVsister
p4789
I1170
sVquarter
p4790
I2341
sVactual
p4791
I3659
sVcranberri
p4792
I2342
sVcolumn
p4793
I2737
sVpurist
p4794
I3660
sVbiscuit
p4795
I4938
sVflake
p4796
I3661
sVnightclub
p4797
I2343
sVfudg
p4798
I4939
sVfear
p4799
I4940
sVblazer
p4800
I4560
sVfuturist
p4801
I4942
sVsweat
p4802
I4943
sVtomo
p4803
I3662
sVjimmi
p4804
I3347
sVgravlax
p4805
I3663
sVseabass
p4806
I3886
sVtheyr
p4807
I1171
sVdesper
p4808
I3664
sVfinal
p4809
I2210
sVrichli
p4810
I2828
sVcouldnt
p4811
I2347
sVwashington
p4812
I2344
sVtenderloin
p4813
I2345
sVthree
p4814
I2590
sVcocoa
p4815
I2346
sVescargot
p4816
I2037
sVdoesnt
p4817
I3666
sVlung
p4818
I2173
sVperpetu
p4819
I4898
sVawhil
p4820
I2176
sVlettuc
p4821
I3667
sVwaterfal
p4822
I1173
sVton
p4823
I3830
sVbombay
p4824
I2348
sVmere
p4825
I1174
sVmorsel
p4826
I2024
sVcustard
p4827
I3668
sVbechamel
p4828
I3616
sVnativ
p4829
I2158
sVyasuda
p4830
I3272
sVstainless
p4831
I3670
sVmuseum
p4832
I2349
sVcaviar
p4833
I1176
sVoasi
p4834
I2177
sVpa
p4835
I4577
sVpool
p4836
I1820
sVkang
p4837
I3441
sVbiggest
p4838
I2092
sVgazpacho
p4839
I4952
sVvenezuelan
p4840
I1177
sVchunk
p4841
I2178
sVtarragon
p4842
I4687
sVdeliveri
p4843
I1179
sVrefus
p4844
I4131
sVbuy
p4845
I3673
sVcosmopolitan
p4846
I1180
sVunexpect
p4847
I3674
sVhr
p4848
I2352
sVbrand
p4849
I2231
sVbasic
p4850
I2592
sVhu
p4851
I2353
sValway
p4852
I4095
sVbasil
p4853
I2593
sVivori
p4854
I3676
sVhi
p4855
I2354
sVgrati
p4856
I1182
sVho
p4857
I2355
sVnut
p4858
I3887
sVoffens
p4859
I1580
sVgrate
p4860
I1183
sVeas
p4861
I2356
sVha
p4862
I2357
sVeat
p4863
I2358
sVbud
p4864
I3678
sVhe
p4865
I4825
sVcount
p4866
I1184
sVprep
p4867
I4082
sVmade
p4868
I4955
sVwise
p4869
I3679
sVdownfal
p4870
I3060
sVtemp
p4871
I2160
sVnoon
p4872
I3378
sVveget
p4873
I1185
sVhandrol
p4874
I1040
sVj
I3681
sVsmooth
p4875
I1186
sVflip
p4876
I3682
sVdistract
p4877
I4839
sVvenetian
p4878
I4960
sVrecord
p4879
I4845
sVbelov
p4880
I4961
sVcarpaccio
p4881
I2359
sVtini
p4882
I2594
sVvibrant
p4883
I3639
sVotherwis
p4884
I1187
sVproblem
p4885
I1188
sVquickli
p4886
I3915
sVcondiment
p4887
I3683
sVdisplay
p4888
I2360
sVmilkshak
p4889
I4963
sVcordial
p4890
I1189
sVirish
p4891
I1190
sVtrattoria
p4892
I4341
sVsirloin
p4893
I1191
sVwhisper
p4894
I3686
sVdomino
p4895
I3687
sVpic
p4896
I3688
sVpie
p4897
I3689
sVencompass
p4898
I4329
sVpig
p4899
I3690
sVtwist
p4900
I2362
sVtabletop
p4901
I3691
sVink
p4902
I1192
sVpenni
p4903
I2363
sVgirl
p4904
I2831
sVprobabl
p4905
I3692
sVartichok
p4906
I3501
sVquot
p4907
I2444
sVnonetheless
p4908
I1194
sVcashew
p4909
I3693
sVoak
p4910
I3694
sVstarbuck
p4911
I2365
sVvirtual
p4912
I3696
sVwander
p4913
I2516
sVsurreal
p4914
I3697
sVcrust
p4915
I4384
sVzarela
p4916
I4590
sVes
p4917
I1622
sVrememb
p4918
I2367
sVvarieti
p4919
I1196
sVdose
p4920
I2309
sVsquar
p4921
I2878
sVout
p4922
I4762
sVpineappl
p4923
I3698
sVrepeat
p4924
I1197
sVstar
p4925
I2368
sVpotenti
p4926
I4344
sVmonday
p4927
I1198
sVduck
p4928
I4704
sVquett
p4929
I2832
sVstay
p4930
I2369
sVstaf
p4931
I2370
sVcondescend
p4932
I4726
sVgorgonzola
p4933
I2371
sVinexperienc
p4934
I4764
sVsandwhich
p4935
I4972
sVtypic
p4936
I4698
sVkinda
p4937
I4973
sVfoie
p4938
I2372
sVcabernet
p4939
I2373
sVhumbl
p4940
I4974
sVbasketbal
p4941
I3700
sVprovolon
p4942
I4975
sVappoint
p4943
I2374
sVexperienc
p4944
I4976
sVcoat
p4945
I3147
sVpate
p4946
I3730
sVsentiment
p4947
I4765
sVdevour
p4948
I3898
sVcinco
p4949
I4584
sVgelato
p4950
I4977
sVbaker
p4951
I3701
sVincompet
p4952
I3702
sVjewel
p4953
I4979
sVinvolv
p4954
I3410
sVrule
p4955
I1199
sVspecifi
p4956
I4919
sVportion
p4957
I2376
sVcraft
p4958
I3919
sVol
p4959
I4300
sVrural
p4960
I1200
sVyell
p4961
I3703
sVsmoker
p4962
I3122
sVtao
p4963
I4729
sVsunda
p4964
I1627
sVsincer
p4965
I1201
s.